; ModuleID = 'nn_cuda-host-x86_64-unknown-linux-gnu.bc'
source_filename = "./nn_cuda.cu"
target datalayout = "e-m:e-p270:32:32-p271:32:32-p272:64:64-i64:64-i128:128-f80:128-n8:16:32:64-S128"
target triple = "x86_64-unknown-linux-gnu"

%struct.dim3 = type { i32, i32, i32 }
%"class.std::vector" = type { %"struct.std::_Vector_base" }
%"struct.std::_Vector_base" = type { %"struct.std::_Vector_base<record, std::allocator<record>>::_Vector_impl" }
%"struct.std::_Vector_base<record, std::allocator<record>>::_Vector_impl" = type { %"struct.std::_Vector_base<record, std::allocator<record>>::_Vector_impl_data" }
%"struct.std::_Vector_base<record, std::allocator<record>>::_Vector_impl_data" = type { ptr, ptr, ptr }
%"class.std::vector.0" = type { %"struct.std::_Vector_base.1" }
%"struct.std::_Vector_base.1" = type { %"struct.std::_Vector_base<latLong, std::allocator<latLong>>::_Vector_impl" }
%"struct.std::_Vector_base<latLong, std::allocator<latLong>>::_Vector_impl" = type { %"struct.std::_Vector_base<latLong, std::allocator<latLong>>::_Vector_impl_data" }
%"struct.std::_Vector_base<latLong, std::allocator<latLong>>::_Vector_impl_data" = type { ptr, ptr, ptr }
%struct.cudaDeviceProp = type { [256 x i8], %struct.CUuuid_st, [8 x i8], i32, i64, i64, i32, i32, i64, i32, [3 x i32], [3 x i32], i32, i64, i32, i32, i64, i64, i32, i32, i32, i32, i32, i32, i32, i32, i32, [2 x i32], [2 x i32], [3 x i32], [2 x i32], [3 x i32], [3 x i32], i32, [2 x i32], [3 x i32], [2 x i32], i32, [2 x i32], [3 x i32], [2 x i32], [3 x i32], i32, [2 x i32], i64, i32, i32, i32, i32, i32, i32, i32, i32, i32, i32, i32, i32, i32, i32, i32, i32, i64, i32, i32, i32, i32, i32, i32, i32, i32, i32, i32, i32, i32, i64, i32, i32, i32, i32, i64, i32, i32, i32, i32, i32, i32, i32, i32, i32, i32, i32, i32, i32, [2 x i32], [61 x i32] }
%struct.CUuuid_st = type { [16 x i8] }
%struct.record = type { [53 x i8], float }
%struct.latLong = type { float, float }
%"class.__gnu_cxx::__normal_iterator" = type { ptr }
%"class.__gnu_cxx::__normal_iterator.5" = type { ptr }
%"struct.std::integral_constant" = type { i8 }

$_ZNSt6vectorI6recordSaIS0_EEC2Ev = comdat any

$_ZNSt6vectorI7latLongSaIS0_EEC2Ev = comdat any

$_ZN4dim3C2Ejjj = comdat any

$_ZNSt6vectorI7latLongSaIS0_EEixEm = comdat any

$_ZNSt6vectorI6recordSaIS0_EEixEm = comdat any

$_ZNSt6vectorI7latLongSaIS0_EED2Ev = comdat any

$_ZNSt6vectorI6recordSaIS0_EED2Ev = comdat any

$_ZNSt6vectorI7latLongSaIS0_EE9push_backERKS0_ = comdat any

$_ZNSt6vectorI6recordSaIS0_EE9push_backERKS0_ = comdat any

$_ZNSt12_Vector_baseI6recordSaIS0_EEC2Ev = comdat any

$_ZNSt12_Vector_baseI6recordSaIS0_EE12_Vector_implC2Ev = comdat any

$_ZNSaI6recordEC2Ev = comdat any

$_ZNSt12_Vector_baseI6recordSaIS0_EE17_Vector_impl_dataC2Ev = comdat any

$_ZNSt15__new_allocatorI6recordEC2Ev = comdat any

$_ZNSt12_Vector_baseI7latLongSaIS0_EEC2Ev = comdat any

$_ZNSt12_Vector_baseI7latLongSaIS0_EE12_Vector_implC2Ev = comdat any

$_ZNSaI7latLongEC2Ev = comdat any

$_ZNSt12_Vector_baseI7latLongSaIS0_EE17_Vector_impl_dataC2Ev = comdat any

$_ZNSt15__new_allocatorI7latLongEC2Ev = comdat any

$_ZSt8_DestroyIP6recordS0_EvT_S2_RSaIT0_E = comdat any

$_ZNSt12_Vector_baseI6recordSaIS0_EE19_M_get_Tp_allocatorEv = comdat any

$__clang_call_terminate = comdat any

$_ZNSt12_Vector_baseI6recordSaIS0_EED2Ev = comdat any

$_ZSt8_DestroyIP6recordEvT_S2_ = comdat any

$_ZNSt12_Destroy_auxILb1EE9__destroyIP6recordEEvT_S4_ = comdat any

$_ZNSt12_Vector_baseI6recordSaIS0_EE13_M_deallocateEPS0_m = comdat any

$_ZNSt12_Vector_baseI6recordSaIS0_EE12_Vector_implD2Ev = comdat any

$_ZNSt16allocator_traitsISaI6recordEE10deallocateERS1_PS0_m = comdat any

$_ZNSt15__new_allocatorI6recordE10deallocateEPS0_m = comdat any

$_ZNSaI6recordED2Ev = comdat any

$_ZNSt15__new_allocatorI6recordED2Ev = comdat any

$_ZSt8_DestroyIP7latLongS0_EvT_S2_RSaIT0_E = comdat any

$_ZNSt12_Vector_baseI7latLongSaIS0_EE19_M_get_Tp_allocatorEv = comdat any

$_ZNSt12_Vector_baseI7latLongSaIS0_EED2Ev = comdat any

$_ZSt8_DestroyIP7latLongEvT_S2_ = comdat any

$_ZNSt12_Destroy_auxILb1EE9__destroyIP7latLongEEvT_S4_ = comdat any

$_ZNSt12_Vector_baseI7latLongSaIS0_EE13_M_deallocateEPS0_m = comdat any

$_ZNSt12_Vector_baseI7latLongSaIS0_EE12_Vector_implD2Ev = comdat any

$_ZNSt16allocator_traitsISaI7latLongEE10deallocateERS1_PS0_m = comdat any

$_ZNSt15__new_allocatorI7latLongE10deallocateEPS0_m = comdat any

$_ZNSaI7latLongED2Ev = comdat any

$_ZNSt15__new_allocatorI7latLongED2Ev = comdat any

$_ZNSt16allocator_traitsISaI7latLongEE9constructIS0_JRKS0_EEEvRS1_PT_DpOT0_ = comdat any

$_ZNSt6vectorI7latLongSaIS0_EE17_M_realloc_insertIJRKS0_EEEvN9__gnu_cxx17__normal_iteratorIPS0_S2_EEDpOT_ = comdat any

$_ZNSt6vectorI7latLongSaIS0_EE3endEv = comdat any

$_ZNSt15__new_allocatorI7latLongE9constructIS0_JRKS0_EEEvPT_DpOT0_ = comdat any

$_ZNKSt6vectorI7latLongSaIS0_EE12_M_check_lenEmPKc = comdat any

$_ZN9__gnu_cxxmiIP7latLongSt6vectorIS1_SaIS1_EEEENS_17__normal_iteratorIT_T0_E15difference_typeERKS9_SC_ = comdat any

$_ZNSt6vectorI7latLongSaIS0_EE5beginEv = comdat any

$_ZNSt12_Vector_baseI7latLongSaIS0_EE11_M_allocateEm = comdat any

$_ZNSt6vectorI7latLongSaIS0_EE11_S_relocateEPS0_S3_S3_RS1_ = comdat any

$_ZNK9__gnu_cxx17__normal_iteratorIP7latLongSt6vectorIS1_SaIS1_EEE4baseEv = comdat any

$_ZNKSt6vectorI7latLongSaIS0_EE8max_sizeEv = comdat any

$_ZNKSt6vectorI7latLongSaIS0_EE4sizeEv = comdat any

$_ZSt3maxImERKT_S2_S2_ = comdat any

$_ZNSt6vectorI7latLongSaIS0_EE11_S_max_sizeERKS1_ = comdat any

$_ZNKSt12_Vector_baseI7latLongSaIS0_EE19_M_get_Tp_allocatorEv = comdat any

$_ZNSt16allocator_traitsISaI7latLongEE8max_sizeERKS1_ = comdat any

$_ZSt3minImERKT_S2_S2_ = comdat any

$_ZNKSt15__new_allocatorI7latLongE8max_sizeEv = comdat any

$_ZNKSt15__new_allocatorI7latLongE11_M_max_sizeEv = comdat any

$_ZN9__gnu_cxx17__normal_iteratorIP7latLongSt6vectorIS1_SaIS1_EEEC2ERKS2_ = comdat any

$_ZNSt16allocator_traitsISaI7latLongEE8allocateERS1_m = comdat any

$_ZNSt15__new_allocatorI7latLongE8allocateEmPKv = comdat any

$_ZNSt6vectorI7latLongSaIS0_EE14_S_do_relocateEPS0_S3_S3_RS1_St17integral_constantIbLb1EE = comdat any

$_ZSt12__relocate_aIP7latLongS1_SaIS0_EET0_T_S4_S3_RT1_ = comdat any

$_ZSt14__relocate_a_1I7latLongS0_ENSt9enable_ifIXsr3std24__is_bitwise_relocatableIT_EE5valueEPS2_E4typeES3_S3_S3_RSaIT0_E = comdat any

$_ZSt12__niter_baseIP7latLongET_S2_ = comdat any

$_ZNSt16allocator_traitsISaI6recordEE9constructIS0_JRKS0_EEEvRS1_PT_DpOT0_ = comdat any

$_ZNSt6vectorI6recordSaIS0_EE17_M_realloc_insertIJRKS0_EEEvN9__gnu_cxx17__normal_iteratorIPS0_S2_EEDpOT_ = comdat any

$_ZNSt6vectorI6recordSaIS0_EE3endEv = comdat any

$_ZNSt15__new_allocatorI6recordE9constructIS0_JRKS0_EEEvPT_DpOT0_ = comdat any

$_ZNKSt6vectorI6recordSaIS0_EE12_M_check_lenEmPKc = comdat any

$_ZN9__gnu_cxxmiIP6recordSt6vectorIS1_SaIS1_EEEENS_17__normal_iteratorIT_T0_E15difference_typeERKS9_SC_ = comdat any

$_ZNSt6vectorI6recordSaIS0_EE5beginEv = comdat any

$_ZNSt12_Vector_baseI6recordSaIS0_EE11_M_allocateEm = comdat any

$_ZNSt6vectorI6recordSaIS0_EE11_S_relocateEPS0_S3_S3_RS1_ = comdat any

$_ZNK9__gnu_cxx17__normal_iteratorIP6recordSt6vectorIS1_SaIS1_EEE4baseEv = comdat any

$_ZNKSt6vectorI6recordSaIS0_EE8max_sizeEv = comdat any

$_ZNKSt6vectorI6recordSaIS0_EE4sizeEv = comdat any

$_ZNSt6vectorI6recordSaIS0_EE11_S_max_sizeERKS1_ = comdat any

$_ZNKSt12_Vector_baseI6recordSaIS0_EE19_M_get_Tp_allocatorEv = comdat any

$_ZNSt16allocator_traitsISaI6recordEE8max_sizeERKS1_ = comdat any

$_ZNKSt15__new_allocatorI6recordE8max_sizeEv = comdat any

$_ZNKSt15__new_allocatorI6recordE11_M_max_sizeEv = comdat any

$_ZN9__gnu_cxx17__normal_iteratorIP6recordSt6vectorIS1_SaIS1_EEEC2ERKS2_ = comdat any

$_ZNSt16allocator_traitsISaI6recordEE8allocateERS1_m = comdat any

$_ZNSt15__new_allocatorI6recordE8allocateEmPKv = comdat any

$_ZNSt6vectorI6recordSaIS0_EE14_S_do_relocateEPS0_S3_S3_RS1_St17integral_constantIbLb1EE = comdat any

$_ZSt12__relocate_aIP6recordS1_SaIS0_EET0_T_S4_S3_RT1_ = comdat any

$_ZSt14__relocate_a_1I6recordS0_ENSt9enable_ifIXsr3std24__is_bitwise_relocatableIT_EE5valueEPS2_E4typeES3_S3_S3_RSaIT0_E = comdat any

$_ZSt12__niter_baseIP6recordET_S2_ = comdat any

@.str = private unnamed_addr constant [12 x i8] c"before all\0A\00", align 1, !dbg !0
@.str.1 = private unnamed_addr constant [18 x i8] c"after before all\0A\00", align 1, !dbg !8
@.str.2 = private unnamed_addr constant [23 x i8] c"size check %lu %lu %d\0A\00", align 1, !dbg !13
@.str.3 = private unnamed_addr constant [13 x i8] c"before call\0A\00", align 1, !dbg !18
@.str.4 = private unnamed_addr constant [30 x i8] c"gridDim.x: %d, gridDim.y: %d\0A\00", align 1, !dbg !23
@.str.5 = private unnamed_addr constant [21 x i8] c"threadsPerBlock: %d\0A\00", align 1, !dbg !28
@.str.6 = private unnamed_addr constant [12 x i8] c"after call\0A\00", align 1, !dbg !33
@.str.7 = private unnamed_addr constant [13 x i8] c"before find\0A\00", align 1, !dbg !35
@.str.8 = private unnamed_addr constant [12 x i8] c"after find\0A\00", align 1, !dbg !37
@.str.9 = private unnamed_addr constant [20 x i8] c"%s --> Distance=%f\0A\00", align 1, !dbg !39
@.str.10 = private unnamed_addr constant [2 x i8] c"r\00", align 1, !dbg !44
@.str.11 = private unnamed_addr constant [4 x i8] c"%s\0A\00", align 1, !dbg !49
@stderr = external global ptr, align 8
@.str.12 = private unnamed_addr constant [24 x i8] c"error reading filelist\0A\00", align 1, !dbg !54
@.str.13 = private unnamed_addr constant [20 x i8] c"error opening a db\0A\00", align 1, !dbg !59
@.str.14 = private unnamed_addr constant [24 x i8] c"Nearest Neighbor Usage\0A\00", align 1, !dbg !61
@.str.15 = private unnamed_addr constant [2 x i8] c"\0A\00", align 1, !dbg !63
@.str.16 = private unnamed_addr constant [90 x i8] c"nearestNeighbor [filename] -r [int] -lat [float] -lng [float] [-hqt] [-p [int] -d [int]]\0A\00", align 1, !dbg !65
@.str.17 = private unnamed_addr constant [10 x i8] c"example:\0A\00", align 1, !dbg !70
@.str.18 = private unnamed_addr constant [55 x i8] c"$ ./nearestNeighbor filelist.txt -r 5 -lat 30 -lng 90\0A\00", align 1, !dbg !75
@.str.19 = private unnamed_addr constant [59 x i8] c"filename     the filename that lists the data input files\0A\00", align 1, !dbg !80
@.str.20 = private unnamed_addr constant [60 x i8] c"-r [int]     the number of records to return (default: 10)\0A\00", align 1, !dbg !85
@.str.21 = private unnamed_addr constant [62 x i8] c"-lat [float] the latitude for nearest neighbors (default: 0)\0A\00", align 1, !dbg !90
@.str.22 = private unnamed_addr constant [63 x i8] c"-lng [float] the longitude for nearest neighbors (default: 0)\0A\00", align 1, !dbg !95
@.str.23 = private unnamed_addr constant [36 x i8] c"-h, --help   Display the help file\0A\00", align 1, !dbg !100
@.str.24 = private unnamed_addr constant [52 x i8] c"-q           Quiet mode. Suppress all text output.\0A\00", align 1, !dbg !105
@.str.25 = private unnamed_addr constant [40 x i8] c"-t           Print timing information.\0A\00", align 1, !dbg !110
@.str.26 = private unnamed_addr constant [73 x i8] c"-p [int]     Choose the platform (must choose both platform and device)\0A\00", align 1, !dbg !115
@.str.27 = private unnamed_addr constant [71 x i8] c"-d [int]     Choose the device (must choose both platform and device)\0A\00", align 1, !dbg !120
@.str.28 = private unnamed_addr constant [60 x i8] c"Notes: 1. The filename is required as the first parameter.\0A\00", align 1, !dbg !125
@.str.29 = private unnamed_addr constant [61 x i8] c"       2. If you declare either the device or the platform,\0A\00", align 1, !dbg !127
@.str.30 = private unnamed_addr constant [35 x i8] c"          you must declare both.\0A\0A\00", align 1, !dbg !132
@.str.31 = private unnamed_addr constant [26 x i8] c"vector::_M_realloc_insert\00", align 1, !dbg !137
@0 = private unnamed_addr constant [24 x i8] c"_Z6euclidP7latLongPfiff\00", align 1
@1 = private constant [32488 x i8] c"P\EDU\BA\01\00\10\00\D8~\00\00\00\00\00\00\02\00\01\01@\00\00\00H;\00\00\00\00\00\00A;\00\00\00\00\00\00\07\00\01\002\00\00\00\00\00\00\00\00\00\00\00\13 \00\00\00\00\00\00\00\00\00\00\00\00\00\00\C0\AE\00\00\00\00\00\00\A2\7FELF\02\01\013\07\00\01\00f\02\00\BE\00y\00\01\00!\E0\AD\07\001\00 \A8\07\00\F5\0E\002\052\00@\008\00\04\00@\00\17\00\01\00\00.shstrtab\00.\08\00'ym\08\00\F1\05_shndx\00.nv.uft.entry\0E\00\F5\13info\00.text._Z6euclidP7latLongPfiff'\00\0F!\00\0Aoshared#\00\0Agglobal\0B\00Q.init\10\00\9Fconstant0A\00\07?rel*\00\14\B4debug_frame\0D\00BlineC\00\08\10\006nv_\0F\00T_sassg\00\0E\18\00\05\14\00wptx_txt\12\00\00\1C\01L_reg*\00\05\18\005typ\8A\00\86abbrev\00.#\00\01t\00\19a\11\00\02\0C\008loc\B4\00\03\D1\00\07-\00\03\12\00\00\16\01\81allgraph\0E\00Qprotou\00\0F\19\02-\0Fd\01\04\0F1\02[\D0blockDim\00grid\08\00\01\11\00\A0Idx\00thread\0A\00\0CU\02c_$_str\07\00O_$_2A\02\19\0F&\00\12z_param\00\8B\01\0Fn\02\EC\0F\01\00\05\8CX\00\00\00\03\00\14\00\01\00\11\BA\18\00,\16\00\01\00p\C5\00\00\00\01\00\16\DA\04\01\01\00\04\08\00\13\CE\18\00*\03\00\18\00\13\D6\18\00\1B\00\18\00\13\DF\18\00*\02\00\18\00\11\E9x\00,\15\00\01\00\11\F9$\00\06\18\00&\0B\009\00\00\18\00\04\10\00\22\11\00\01\00 5\01H\00,\13\00\01\00\11b\18\00,\04\00\01\00\11o\18\00,\05\00\01\00\11\8B\18\00,\06\00\01\00\11\B7\18\00,\07\00\01\00\11\C9\18\00,\08\00\01\00\11\E1\18\00,\09\00\01\00\11\F9\18\00,\0A\00\01\00 \07\02\18\00,\0B\00\01\00\11R\18\00,\0E\00\01\00f@\00\00\00\12\10\C8\01!@\0F\07\00v\00\FF\FF\FF\FF<\05\0C\00\00\01\00@\03\00\04|\08\00\F0\02\0F\0C\81\80\80(\00\08\FF\81\80(\07\80\80\80\08\05\000\10\07\82\05\00\10\83\05\00\10\84\05\00\10\85\05\00\10\86\05\00P\80\80\80(\083\00\00#\00\10(#\00\10(#\00\10(#\00\10(#\000(\07\87\05\00\10\88\05\00\10\89\05\00\10\8A\05\00\10\8B\05\00\10\8C\05\00\10\8D\05\00\10\8E\05\00\10\8F\05\00\10\90\05\00\10\91\05\00\10\92\05\00\10\93\05\00\10\94\05\00\10\95\05\00\10\96\05\00\10\97\05\00\10\98\05\00\10\99\05\00\10\9A\05\00\10\9B\05\00\10\9C\05\00\10\9D\05\00\10\9E\05\00\10\9F\05\00\10\A0\05\00\10\A1\05\00\10\A2\05\00\10\A3\05\00\10\A4\05\00\10\A5\05\00\10\A6\05\00\10\A7\05\00\10\A8\05\00\10\A9\05\00\10\AA\05\00\10\AB\05\00\10\AC\05\00\10\AD\05\00\10\AE\05\00\10\AF\05\00\10\B0\05\00\10\B1\05\00\10\B2\05\00\10\B3\05\00\10\B4\05\00\10\B5\05\00\10\B6\05\00\10\B7\05\00\10\B8\05\00\10\B9\05\00\10\BA\05\00\10\BB\05\00\10\BC\05\00\10\BD\05\00\10\BE\05\00\10\BF\05\00\10\C0\05\00\10\C1\05\00\10\C2\05\00\10\C3\05\00\10\C4\05\00\10\C5\05\00\10\C6\05\00\10\C7\05\00\10\C8\05\00\10\C9\05\00\10\CA\05\00\10\CB\05\00\10\CC\05\00\10\CD\05\00\10\CE\05\00\10\CF\05\00\10\D0\05\00\10\D1\05\00\10\D2\05\00\10\D3\05\00\10\D4\05\00\10\D5\05\00\10\D6\05\00\10\D7\05\00\10\D8\05\00\10\D9\05\00\10\DA\05\00\10\DB\05\00\10\DC\05\00\10\DD\05\00\10\DE\05\00\10\DF\05\00\10\E0\05\00\10\E1\05\00\10\E2\05\00\10\E3\05\00\10\E4\05\00\10\E5\05\00\10\E6\05\00\10\E7\05\00\10\E8\05\00\10\E9\05\00\10\EA\05\00\10\EB\05\00\10\EC\05\00\10\ED\05\00\10\EE\05\00\10\EF\05\00\10\F0\05\00\10\F1\05\00\10\F2\05\00\10\F3\05\00\10\F4\05\00\10\F5\05\00\10\F6\05\00\10\F7\05\00\10\F8\05\00\10\F9\05\00\10\FA\05\00\10\FB\05\00\10\FC\05\00\10\FD\05\00\10\FE\05\00\10\FF\05\00\10\80\A8\02\10\81\05\00\10\82\05\00\10\83\05\00\10\84\05\00\10\85\05\00\10\86\05\00\10\87\05\00\10\88\05\00\10\89\05\00\10\8A\05\00\10\8B\05\00\10\8C\05\00\10\8D\05\00\10\8E\05\00\10\8F\05\00\10\90\05\00\10\91\05\00\10\92\05\00\10\93\05\00\10\94\05\00\10\95\05\00\10\96\05\00\10\97\05\00\10\98\05\00\10\99\05\00\10\9A\05\00\10\9B\05\00\10\9C\05\00\10\9D\05\00\10\9E\05\00\10\9F\05\00\10\A0\05\00\10\A1\05\00\10\A2\05\00\10\A3\05\00\10\A4\05\00\10\A5\05\00\10\A6\05\00\10\A7\05\00\10\A8\05\00\10\A9\05\00\10\AA\05\00\10\AB\05\00\10\AC\05\00\10\AD\05\00\10\AE\05\00\10\AF\05\00\10\B0\05\00\10\B1\05\00\10\B2\05\00\10\B3\05\00\10\B4\05\00\10\B5\05\00\10\B6\05\00\10\B7\05\00\10\B8\05\00\10\B9\05\00\10\BA\05\00\10\BB\05\00\10\BC\05\00\10\BD\05\00\10\BE\05\00\10\BF\05\00\10\C0\05\00\10\C1\05\00\10\C2\05\00\10\C3\05\00\10\C4\05\00\10\C5\05\00\10\C6\05\00\10\C7\05\00\10\C8\05\00\10\C9\05\00\10\CA\05\00\10\CB\05\00\10\CC\05\00\10\CD\05\00\10\CE\05\00\10\CF\05\00\10\D0\05\00\10\D1\05\00\10\D2\05\00\10\D3\05\00\10\D4\05\00\10\D5\05\00\10\D6\05\00\10\D7\05\00\10\D8\05\00\10\D9\05\00\10\DA\05\00\10\DB\05\00\10\DC\05\00\10\DD\05\00\10\DE\05\00\10\DF\05\00\10\E0\05\00\10\E1\05\00\10\E2\05\00\10\E3\05\00\10\E4\05\00\10\E5\05\00\10\E6\05\00\10\E7\05\00\10\E8\05\00\10\E9\05\00\10\EA\05\00\10\EB\05\00\10\EC\05\00\10\ED\05\00\10\EE\05\00\10\EF\05\00\10\F0\05\00\10\F1\05\00\10\F2\05\00\10\F3\05\00\10\F4\05\00\10\F5\05\00\10\F6\05\00\10\F7\05\00\10\F8\05\00\10\F9\05\00\10\FA\05\00\10\FB\05\00\10\FC\05\00\10\FD\05\00B\FE\81\80(<\05/4\00\01\00\03\04l\05\10\04W\06\10\04\D2\06\01Y\0548\04\B8\0E\07@\00\00\BA\03<\0C\D0 \03\00\00\01\01\FB\0E\0A\00\01\01\01\F3\06\FF\1E\01/nethome/cahn45/CuPBoP/cuda-12.1/include/nv\00,\00\15\0D)\00\F1\02llvm-vortex-with-3\00\FF\03build/lib/clang/18A\00\06\03j\00\F6\03examples/nn/.\00/usr2\00\00\0D\00\00L\00\F6\0Bgcc/x86_64-linux-gnu/13/..\03\00\035\00@/c++\1B\00IbitsN\00\0EA\00\06#\00\0Fd\00#\0F<\00)\11/e\09\F1\08\00\00target\00\01\C3\CB\8B\B9\06\D5;vector\D4\09Qs.h\00\02\17\00A\96g__N\01\10_c\01\10_c\01ptin_var$\00\A1\03\B2\C8\D9\B9\06\9C&nn\1F\00\C9.cu\00\04\99\AC\F3\B9\06\C3M7\00Ucmath0\009\BD\90\01\1E\00\09\1D\00-\F2\7F\1C\00\F5\02_forward_declares-\00\F0\0B\95Bstdlib.h\00\05\E2\EC\C4\B1\06\FB\97\02std_ab$\00\80\06\CA\AF\B4\A5\06\8A%D\00\00H\0A\00\14\00\11\07'\00!\9Ag\92\00!\00\08\22\003\A5\DE\05\83\00\02E\00B\C4\EA\02cX\00\03!\00\F5\02\873__stddef_size_t\81\00%\C4\05\81\00\02+\00!\81\12]\01A.h\00\09\10\00T\A80\00\00\09\14\0A\F1\1A\00\04\04\03:\01\02\C8\00\04\03\03\14\02\D0\07\01\03\0D\02\18\01\03g\02\18\01\04\04\03{\02 \01\04\03\F3\04\04\03|\0A\00 \03w\07\00\F0\02\04\03\09\02 \01\03\04\02\F0\00\01\03\01\02\A0\03\06\00&\E8\01\0C\00\F0\0B\A8\02\01\03\7F\02\D8\01\01\04\05\03\E9\00\02\E8\00\01\04\06\03\8C\01\02\C0\01=\00\A1\8B~\02\B8\02\01\03\02\02\C03\00@8\01\02\F8\B2\03 7\01\BE\03,\10\00\BE\03\19\00\AE\00\A1\00\03\17\01\02\08\03\0D\02\C0|\00\11\D0\06\00\100\05\00\1A \05\00#\C0\00\06\00\11\F0!\00\14\F0'\00/\E0\00\06\00\01\11\03\CC\005\03\02\18\05\001 \01\F2\06\00\13\F1\07\00!\03\02)\00\11\02)\00\82\02\02\90\01\01\F0\03\02+\005\F8\00\01\1E\00\83\E0\00\01\F2\F0\83\03\02\15\00\11\88\E3\00\11\18?\00\08'\00\02\0C\00E\C8\00\01\81\13\00\89\E0\00\01\F1\81\80\03\03\96\00\05\1B\00 \03\03P\01'\03\02\12\00\15\04;\01\00\1A\01\E2.version 8.1\00.H\03\82 sm_50, ]\03\81.address1\02  6j\05\035\0E\E4 .align 1 .b8 q\0EO[1];\22\00\03\03\8A\0E\0E!\00\09C\00?Idx\22\00\07\05\BC\0E\0F#\00\07\02\BE\0E\C0[11] = {95, \04\00P67, 8\08\00C8, 6\14\00\EF70, 84, 90, 0}O\00\0A\00\0D\0F?[17S\00\0E\108S\00R2, 69 \00\01\14\00R3, 81\18\00\2284k\00\A2\00.visible =\10\1F 1\0F\041(\00.2\0F_ .u64%\00\05\02U\0F?_0,-\00\18\171-\00/32-\00\0C\162-\00\1Ff-\00\0E\1F3-\00\19\A64\00)\00{\00.locx\01\118x\011\09__\16\00\A0_depot0[56\F1\01\DCreg .b64 \09%SP\10\00\14L\11\00\B5pred \09%p<2>$\00\9532 \09%r<13\13\00\11f\13\00Zf<14>J\00\F0\0Ard<17>;\00\00$L__func_begin0:1\03Tmov.uq\00*, \A6\00b;\00cvta\CF\00\05&\00\22, \9C\00\22ld\18\01\04y\00O2, [\1E\01\0C\1E]6\00\1F16\00\0E\1836\00\11u6\00\1Fr6\00\0F\1926\00\03\08\01\0F\A3\00\0F\1F17\00\01\0Fn\00\0F#0]+\01#tov\03\05=\0003, z\00\03 \00\0B\1D\00\114\1D\00\1F3=\00\06\115 \00\1F1=\00\03\116\1D\00R5;\00st\14\00q[%SP+8]\17\00\1B6\17\00\2216\18\00\124\18\00#32\18\00!24\18\00\111\17\00\16f\17\00\01G\00\1Cf\17\00!32\17\00!2;L\02Stmp0:C\02\02\98\01\A52, %ntid.x\22\00\1A1\22\00\00\0F\01Incta$\00\1A2$\00\00\16\01\02#\00\15y#\00\103#\00rul.lo.s&\00\01\1C\01\00O\00%r4&\00\1A4I\00\00\22\01\0Cl\00t5:\00\00addF\0037, K\00,6;b\0028, \D3\00%r7?\00\1A6b\00J9, %\F0\00\1A7`\00C10, J\00:9;\00|\01\123\94\01@10;\00u\02\01\AD\01c%rd7, \CA\01\02\18\00\03J\00Dd8, 7\00\00J\00%hl\E0\03\00\86\00\01 \00\223;|\00\03\18\00\02}\00!d7\06\00\04\7F\00\05\13\02240]_\02\150\BD\00\228:\8A\00\03\BC\00\191r\00\07\19\00\00I\03\03>\02\00V\00cetp.ge\A9\00Bp1, <\00\00)\00\05[\00\E09:\00\00@%p1 bra \09\15\00\E6BB0_2;\00bra.uni\14\0051;\00\0B\00\14:?\00910:%\01\05\9C\00+16'\01/12(\01\06\111/\02\01\22\00\1B2*\01\02\8A\03\00V\00\00\07\00\1D3,\01\03W\03\2214m\00\03\BE\0443, /\03\1A;\9F\0045, e\01\092\00\104\18\00\00 \00\00\17\00dsub.rn\1B\00\00\86\02\00R\00*%fe\0046, }\03\09\18\00\147K\00.+4M\00\00r\02\00:\003%f7\D8\02\06\1C\00\00/\02\02!\00w8;\00\00fma\1C\00\013\02%f5\05\00\1B9\02\04\124\18\04\063\02811:\95\00\05\98\01+4]:\00\120:\00\161:\00\1A2:\00\04\B8\01\012\01\B5sqrt.approx!\00\01\1C\01\07S\02+13\14\02\04*\01\114\8F\01\06~\00\22rd\FF\04\11f\D9\01\0Dq\02\07R\0054:\00\16\00f:\00\00ret\1C\00&5:B\070end\91\02,}\00\01\00\9A.section\09}\17/{\00\01\00\FF\FF\BD\1D}\E9\02\01G\1A/{\00\01\00\FF\FF\FF\FF\FF\FF\FF\FF\FF\FF\FF\FF\FF\FF\FF\FF\FF\FF\FF\FF\FF\FF\FF\FF\FF\FF\FF\FF\FF\FF\FF\FF\FF\FF\FF\FF\FF\FF\FF\FF\FF\FF\FF\FF\FF\FF\19\0E\17.\7Floc\09{\09}EJ\06\22W\00\01\00\00T8\00\D3Gc\05\88\00\00\00\C8\F2<\01\15\00\A5\04\00\00\05\90\00\00\00\E8\00*\00\00\07\00u\05\B0\00\00\00\D8\0D)\00\00\E0G\81\05\B8\00\00\00\F8\0D\00\01\001%f2Q\00d\D8\00\00\00\10\04\14\00\111P\00S\F8\00\00\00\D03A0%r1\8EGe\05\18\01\00\00P\14\00 d2+G \05P\15\00\13\02e\00\00\15\00\A5\0B\00\00\05X\01\00\00(\02*\00\101\85Gf\05\90\01\00\00\B0*\00\101\82Gf\05\98\01\00\00\88*\00\103\DFGu\05\A8\01\00\00\10\03*\00\103\DCGf\05\B0\01\00\00\E8*\00\114*\00\1A\D0*\00\114*\00\1A\D8*\00\115~\00\1A\E8~\00\115~\00\1A\F0~\00\116*\00)\10\02*\00\116*\00(\18\02*\00\028\01T\18\04\00\00\A88\01!r38\01U0\04\00\00h\14\00\1148\01UP\04\00\00p\14\00\115(\00\00$\00\15\98\14\00\116(\00U\88\04\00\00\B0\14\00\117(\00\19\98\14\00\118x\00\00t\00\15\D8\14\00\119(\00d\C8\04\00\00\10\05\14\00!10)\00\00%\00%P\05\CA\00\117f\00U\98\05\00\00\B0*\00\13dg\00H\05\00\00\A8\15\00\01\87\01W\05\00\00\98\06?\00\01\87\01U\05\00\00p\06*\00\118?\00V0\06\00\00P*\00\02\A7\00V8\06\00\00x\15\00\119~\00VH\06\00\00h?\00\02\BD\00\00;\00\16X\15\00!10\16\00\00\12\00\16\D8@\00!10A\00\13h\16\00\02,\00\2211k\00U\07\00\00\B0\07\15\00\112@\00\18\98\15\00 p1\07\00v\02\A8\07\00\00\B8\07T\00\02\D9\02S(\08\00\008(J\02\16\00\13\04\16\00\190\16\00\00\15\01\00\12\00((\09B\00\00\16\01\00>\00\17\F8,\00\02\82\00f\B8\08\00\00\D8\08,\00\027\02W\C8\08\00\00\08B\00\113\84\00W\D0\08\00\00\F0B\00\02O\02\00>\00\17\E8\16\00\114\16\00\00\12\00\17\98B\00\02g\02\00>\00$p\09\C7\03\123l\00V\09\00\00\90\0A*\00\115*\00S(\0A\00\008\E8J\02\16\00\13\04\16\00\190\16\00\00\DA\00\00\12\00(\08\0BB\00\00$\03\00>\00\13\D0\12K\06X\00YH\0A\00\00hn\00\002\01TP\0A\00\00\A8X\00\12f\C2\00U\88\0A\00\00\C8\14\00\115\AC\00\00\A8\00\14pT\00!f6<\00U\F0\0A\00\00\88\14\00\02\AC\02UP\0B\00\00X\14\00\02\81\02\00\10\00\15h\14\00\02V\02\00\10\00\15\A8\14\00\03\13\03'p\0B\B9\00\13f?\02e0\0C\00\00\90\0C\15\00\02\BD\01S\F0\0C\00\00\08*\05\12_\D2C\00s7\12_s7\81_f32_arg+\00\10\F8@\00\05U\05\12a?\02(\10\0D\15\00\02V\05\19\18\14\00\02~\05f0\0D\00\00P\0D\B7\01\00I\01j8\0D\00\00\C8\0D\BB\02\18H\14\00!f4<\00\008\00*X\0DG\01\00\10\00&h\0DG\01\00\14\00\00\10\00+p\0D\0B\01\19xQ\00\03\0B\01\1A\88\15\00\02\0B\01\00\B3\00\16\98\15\00\02\9B\02\00\11\00\15\A8\15\00\12v\E1\00\17\A8?\00\0F5\01\041dst+\00\1A\B0j\00\02U\00\10\B8!\01\16\0EB\02\02\BF\00S(\0E\00\00HhM\02\16\00\13\02\16\00\198\16\00\00,\00\00(\00\19hB\00\00\0B\07\22P\0EX\00\0Fe\07\09\87\03\03\03\03\0E\0E\02\03\01\00\14\02\01\00\17\03\13\00%\10\03\01\00\13\0E\07\00\09\01\00%\10\0E\01\00\00\1D\00\F0\01\01\11\01%\08\13\05\03\08\10\06\1B\08\11\01\12\BFD\F6\129\01\03\08\00\00\03\04\01\03\08\0B\0B:\0B;\0B\00\00\04(\00\03\08\1C\0F\00\00\05\13\016\0B\18\00p\06\0D\00\03\08I\13\0D\00\00u\03P\07.\01\03\08\0D\000<\0C?\A1\02\90\05\00I\134\0C\00\00\09\09\00r\00\00\0A\16\00I\13!\00\82\00\00\0B.\01\87@\08\0E\00\22I\131\000\0C\08\00\0F\00\F1\02\18\13\00\00\0D$\00\03\08>\0B\0B\0B\00\00\0E\0F>\00\17\0F{\00E\05\00\00\10{\00\01\F0\03\13\11{\00\12\05J\00\16\12^\00\14\05^\00\15\13\7F\00Q\05\00\00\14&U\00=\15.\00\86\00\18\16\C6\00W2\0B\00\00\17\AB\00\04\14\00\1D\18\BF\00\00\16\00!\19\10V\00\A9\1A.\00G\13 \0B\00\00\1B&\00\00\12\004\1C\05\00\0F\009\00\00\1D\A6\00\00\1F\004\1E\05\00\0F\00P\00\00\1F.\01\93\01%@\0AD\00\00\9F\00v \05\003\0B\02\0AF\00+!4\11\00P\22\1D\001\13:\00\B2X\0BY\0BW\0B\00\00#\0B\01\DC\01:$\1D\01\1A\00\12%M\00Q1\13\00\00&}\01\10\05}\010'9\00\03\02\1B(\E4\004\00\00)f\01\04,\018*.\01\04\01P\00\00+\13\00)\00\10,\AD\01\04&\026-.\00\9C\01`\87\01\0C\00\00.\A0Q\10/\0EK\800&\00\00\001\15\01\B8\00;2.\01(\00:3.\00p\00\1942\01\00j\00%5:4\020\00\E1<~G\00\01\00!\08\01\ECH\14 PF\F2\0C18.1.7 (https://github.com/\EFJ`gpgpu/\00K\F7\22.git b115a172abc24683b2730b5b601f34e27fe19d93)\00\1A\00\A5I\00\01\00\0F\13K\0F\1C\00\10LS\02nv\00\026J\F1\00\02detail\00\03sm_sel<J\C1\00\08\01X\04sm_35\00#\08\00A7\00%\04\17G!\002\08\0012\004\08\0003\005\08\00A60\00<\08\0011\00=\08\0002\00>\08\00A70\00F\08\0012\00H\08\0005\00K\08\00A80\00P\08\0016\00V\08\0017\00W\08\0009\00Y\08\00r90\00Z\00\05\05\A2\00\80_descrip'\0CR\00\08\01Q\06\17\000s\00\ACbS_R\02#\00\07)\00\00`\01T\01\01\08\93\B9\0A\10\09(\00\F2\0D\00\00\0A}\02\00\00base_int_t\00\012\0B_ZN2nv6>\00\126\08\01\F7\0410is_exactlyENS1_11\19\01&E\00\1E\00@\00\01\8E]\82\000\01\09\CC`\00\0FN\00\02\9F8providesK\00\01\04\1C\008\00\01\93I\00@\00\0C\01\AB\10\00A\0C\01\AC\CC\0E\00!\CA\BE\0E\00!\CB\0Ck\02\F1\08\0Dfloat\00\04\04\0Dunsigned long\05\00@\00\07\08\0E;\00\F0\00\0F\05dim3\00\0C\02\A2\01\10x\007\E2Mv\A4\01\02#\00\10y\0D\006\04\10z\0D\00!\08\111\00p\02\A7\01\01\01\08GC\0C\10\09\1C\00\06\05\00\13\00!\00\16\A8!\00\10L\17\00`\12_ZNK4\1C\00\F1\05cv5uint3Ev\00operator \11\00@\00\02\A9\01,\00Q\01\01\08\8A\03\8B\06\06\BA\00\F3\01int\00\07\04\0E\98\02\00\00\13Z\03\00\001\00B\80\01\05\05\0B\00C\0C\02\C0\06\C2\00e\C2\02#\00\06y\0C\005\04\06z\0C\00\80\08\00\0E\8F\03\00\00\14H\00:\05\04_\E3L\04\9AI\00\F4\010\03N\15\A7\01\1F5#\00\06\9517__fetch\1C\00MxEv\00\14\00A\00\03O7\D3\00\0FO\00\1E\1FyO\00\00Oy\00\03PO\00$\1FzO\00\00Bz\00\03QO\00\00\94\02\1FKP\00\08!cv\BB\01\08\B3\01\00\10\000\00\03TJ\01A\01\01\08\06r\0C\0FG\00\0F\0F\FB\01\05G\03UZ\03I\00\1F\16C\00\06P\00\03X\01\01\16\08\0F'\00\17 \09\15\F9\0C\1F\17\9C\00\0CuaSERKS_\99\00\13=C\00\16\06C\00\1F\18C\00\0D\17d\D9\00P&\00\03X\1A<\00\04D\00\D0\00\00\0E\0B\06\00\00\14\94\03\00\00\0E\05\003\19\0B\06\0A\00\0D\8B\02\03\03L\01\8A\02\11[\EC\01\1F4\22\00\05\0F\89\02\16\17\\:\02\0FN\00\01\0F\88\02\1B\1F]N\00#\0F\87\02\04\18^\87\02\0FO\00\01\0F\86\02\0B\13a\86\02\11\876\0E\0FF\00\0E\0F\85\02\067bZ\03H\00\1F\16B\00\050\00\03e\D6\01\1F\91&\00\175\09\96\08\83\02\0F\99\00\06\0F\82\02\00\01B\00\16\87B\00\1F\18B\00\0C\0B\81\02 e\9B;\00\04C\00\90\00\00\0E\8C\08\00\00\14\1Fw\02\00\05\003\19\8C\08\0A\00\0F\0C\05\031Idx\82\02\1FAn\04\07\01#\00\0F\83\02\16\17B5\02\0FO\00\19\0F\84\02\04\1FCO\00$\0F\85\02\04\1FD\0C\05\0E\01P\00\0F\86\02\06\13G\86\02\11\12\F8\0F\0FG\00\0F\0F\87\02\067HZ\03I\00\1F\16C\00\060\00\03K\DD\01\1F\1C'\00\18?\09!\0B\0C\05\0B\012\00\0F\8A\02\00\01C\00\16\12C\00\1F\18C\00\0D\0B\8B\02 K&<\00\04D\00\90\00\00\0E\17\0B\00\00\14\A0\81\02\00\05\003\19\17\0B\0A\00\0D\8B\02\05\CCP\01\8C\02\114\EE\01\1F6$\00\07\0F\8D\02\16\175>\02\0FP\00\03\0F\8E\02\1B\1F6P\00%\0F\8F\02\04\187\8F\02\0FQ\00\03\0F\90\02\0B\13:\90\02\11\A7\CD\16\0FH\00\10\0F\91\02\067;Z\03J\00\1F\16D\00\070\00\03>\E4\01\1F\B1(\00\195\09\B6\0D\93\02\0F\9F\00\08\0F\94\02\00\01D\00\16\A7D\00\1F\18D\00\0E\0B\95\02 >\BB=\00\04E\00\90\00\00\0E\AC\0D\00\00\14+\8B\02\00\05\003\19\AC\0D\0A\00 \1A\B3\01\01 \1A=\C8\07 \1A\0ED\14 \1A\BFS\05 \1AK\CE\02P\1B_ZL4\B1\11\11f_J@\00\05\AEtz\01C\1C__x\0C\00a\00\1D_ZL5#\00\02$\00Qf\00\06:\01&\00D\1E__a\0D\00;\00\1F\00\81\0D/\01\9C|\11\05\02\15\00\A2\00\04:\01 \06\0B\91H\96\01\001#\08djQ\00\DB\0C\89s\00\04:\A6<\00\00 \00P\10d_di~b ce \00+e  \00\A0\18numRecord\1F\00+I\19\1F\00 \1ClS\0C;;t\02\18\00C lng\18\00\18!\18\00\12$\\P{Id\00\04>I\19\1D\00\13(\D1\000\00\04B\A8\00q\22\C0\0D\00\00\18\04\F8\003\000\04\93VV>\12\22\C6\0D\10\00\15@\18\00F \22\CC\0D\10\00\15`\18\00s,\22\D2\0D\00\00x\10\00\15\98\18\00 9\22\D6\19\13\B8\10\00\04\0A\18S\04?\12#\D0\EF\16\13\98\17\13\09\A5\00\100/\010\00\04D*\01\81$\DE\0D\00\00\D8\0B\00\01\001\D0\0D\00\01\00H\04E\14%1\00\CA\04\F5\0D\00\00$\01\0E\00\00\98\0C*\00e\05\AEi%\06\09*\00\13\1Bo\00\00\C1X\C1\00\0C\07\C8.\19\00\00\0C\07\C9P\07\00!\CAm\07\00!\CB\8C\07\00!\CC\A9\07\00!\CD\C8\07\00!\CE\E5\07\000\CF\0A\1A\07\00!\D0)\07\00!\D1F\07\00!\D2c\07\00!\D3\8E\07\00!\D4\A9\07\00!\D5\C6\07\00!\D6\E1\07\00!\D7\FE\07\000\D8\19\1B\07\00!\D96\07\00!\DAU\07\00!\DBr\07\00!\DC\95\07\00!\DD\B4\07\00!\DE\DB\07\00!\DF\FE\07\000\E0!\1C\07\00!\E1D\07\00!\E2n\07\00!\E3\99\07\00!\E4\BE\07\00!\E5\DD\07\000\E6\0A\1D\07\00!\E77\07\00!\E8o\07\00!\E9\8E\07\00!\EA\B5\07\00!\EB\E7\07\000\EC\1D\1E\07\00!\ED<\07\00!\EEa\07\00!\EF\93\07\00!\F0\B8\07\00!\F1\DD\07\00!\F2\FE\07\000\F3*\1F\07\00!\F4K\07\00!\F5f\07\00!\F6\85\07\00!\F7\A4\07\00!\F8\C1\07\00!\F9\DE\07\00!\FA\FD\07\000\FB\1E \07\00!\FCA\07\00!\FDj\07\00!\FE\A3\07\00\A1\FF\C2 \00\00&\07\00\01\E9\08\00@\01\01\16!\08\001\02\017\08\001\03\01d\08\001\04\01\92\08\001\05\01\AF\08\001\06\01\CE\08\001\07\01\F7\08\00@\08\01\1E\22\08\001\09\01A\08\001\0A\01\\\08\00 \0B\01>\02Q&\07\0C\01y\10\001\0D\01\94\08\001\0E\01\B1\08\00\A0\0F\01\D2\22\00\00\0C\094\F1\07\00@\0BU\05#\07\00!h\19\07\00!{-\07\00!\8EA\07\00!\9A[\07\00!\ADo\07\00!\C0\82\07\00!\D3\96\07\00!\E6\A9\07\00\A1\F9\BD#\00\00&\0B\0C\01\D2\08\001\18\01\EB\08\00@+\01\05$\08\001>\01\1F\08\001Q\012\08\001d\01G\08\001p\01e\08\001\8C\01}\08\001\9F\01\90\08\001\B2\01\A4\08\001\C5\01\B8\08\001\D8\01\CB\08\001Y\07\DF\08\001Z\07\EF\08\001]\07\FE\08\00@^\07\13%\08\001_\07)\08\001a\07N\08\001b\07c\08\001c\07y\08\001e\07\8F\08\001f\07\A4\08\001g\07\BA\08\001i\07\D0\08\001j\07\E4\08\001k\07\F9\08\00@m\07\0E&\08\001n\07+\08\001o\07I\08\001q\07g\08\001r\07z\08\001s\07\8E\08\001u\07\A2\08\001v\07\B6\08\001w\07\CB\08\001y\07\E0\08\001z\07\F4\08\00@{\07\09'\08\001}\07\1E\08\001~\073\08\001\7F\07I\08\001\81\07_\08\001\82\07y\08\001\83\07\94\08\001\85\07\AF\08\001\86\07\CD\08\001\87\07\EC\08\00@\89\07\0B(\08\001\8A\07%\08\001\8B\07@\08\001\8D\07[\08\001\8E\07u\08\001\8F\07\90\08\001\91\07\AB\08\001\92\07\C5\08\001\93\07\E0\08\001\95\07\FB\08\00@\96\07\11)\08\001\97\07(\08\001\99\07?\08\001\9A\07U\08\001\9B\07l\08\001\9E\07\83\08\001\9F\07\9A\08\001\A0\07\B2\08\001\A2\07\CA\08\001\A3\07\E2\08\001\A4\07\FB\08\00@\A7\07\14*\08\001\A8\07)\08\001\A9\07?\08\001\AB\07U\08\001\AC\07i\08\001\AD\07~\08\001\AF\07\93\08\001\B0\07\A7\08\001\B1\07\BC\08\001\B3\07\D1\08\001\B4\07\E7\08\001\B5\07\FE\08\00@\B7\07\15+\08\001\B8\07,\08\001\B9\07D\08\001\BB\07\\\08\001\BC\07o\08\001\BD\07\83\08\001\BF\07\97\08\001\C0\07\B1\08\001\C1\07\CC\08\001\C3\07\E7\08\00@\C4\07\06,\08\001\C5\07&\08\001\C7\07F\08\001\C8\07f\08\001\C9\07\87\08\001\CB\07\A8\08\001\CC\07\C7\08\001\CD\07\E7\08\00@\CF\07\07-\08\001\D0\07(\08\001\D1\07J\08\001\D3\07l\08\001\D4\07\81\08\001\D5\07\97\08\001\D7\07\AD\08\001\D8\07\C3\08\001\D9\07\DA\08\001\DB\07\F1\08\00@\DC\07\0E.\08\001\DD\07,\08\001\DF\07J\08\001\E0\07f\08\001\E1\07\83\08\001\E3\07\A0\08\001\E4\07\B6\08\001\E5\07\CD\08\001\E7\07\E4\08\001\E8\07\FA\08\00\A1\E9\07\11/\00\00\0C\0D\83(\07\00!\847\07\00!\86h\07\00!\8Au\07\00!\8D\92\07\00!\90\B0\07\00!\91\C4\07\00!\92\D8\07\00!\93\EC\07\000\94i0\07\00!\95\85\07\00!\96\9E\07\00!\97\B0\07\00!\98\C1\07\00!\99\DD\07\00!\9A\F2\07\000\9B\0C1\07\00!\9D#\07\00!\9E>\07\00!\9Fq\07\00!\A1\92\07\00!\A4\B3\07\00!\A7\CB\07\00!\A8\DA\07\00!\A9\F7\07\000\AA\092\07\00!\AB)\07\00!\ACI\07\00!\ADj\07\00!\AF\81\07\00!\B0\AE\07\000\F4B3\07\00!\F6t\07\00!\F8\87\07\00!\F9\14\07\00!\FA\9D\07\00!\FC\B8\07\000\FD\104\07\00!\FE\CD\0E\00\B1\FF\EE3\00\00&\0D\00\01+4C\15\F0\01St3abse\00abs\00\09O?%\C8\09\10\09\07\00p\00&\05\BB\01.5\08\001\BC\01M\08\001\BD\01n\08\001\BE\01\8D\08\001\BF\01\AE\08\001\C0\01\D5\08\001\C1\01\F4\08\00@\C2\01\156\08\001\C3\014\08\001\C4\01S\08\001\C5\01\80\08\001\C6\01\9D\08\001\C7\01\BC\08\001\C8\01\DB\08\001\C9\01\F8\08\00@\CA\01\177\08\001\CB\014\08\001\CC\01U\08\001\CD\01t\08\001\CE\01\99\08\001\CF\01\BA\08\001\D0\01\E3\08\00@\D1\01\088\08\001\D2\01-\08\001\D3\01R\08\001\D4\01z\08\001\D5\01\A1\08\001\D6\01\C2\08\001\D7\01\E9\08\00@\D8\01\0C9\08\001\D9\01/\08\001\DA\01T\08\001\DB\01u\08\001\DC\01\96\08\001\DD\01\B5\08\001\DE\01\D4\08\001\DF\01\F1\08\00@\E0\01\12:\08\001\E1\015\08\001\E2\01[\08\001\E3\01\85\08\001\E4\01\B5\08\001\E5\01\D8\08\00@\E6\01\08;\08\001\E7\018\08\001\E8\01X\08\001\E9\01y\08\001\EA\01\A5\08\001\EB\01\CF\08\001\EC\01\ED\08\00 \ED\01\0E\09`&\05\EE\01\0D<\08\001\EF\01+\08\001\F0\01K\08\00\93\F1\01o<\00\00'__\A7b@(_ZL\DE\01\11i\DE\01 \07\1E9\0A \01\09\06\00 \00\0D\09\16 \05\04\22\00p4acosf\00\06\000\00\07 z\0A \01\09\06\00\01?\00\105\17\00\12h\1E\00Kh\00\07\22\1F\00p4asinf\00\06\00=\00\07$<\00Bsinh\1E\00Mh\00\07&<\00 ta<\00mtan\00\07*<\00Rtan2f\1F\00F2\00\07( \00\0B%\00\12h$\00Kh\00\07,D\0004cb!\0C\00\06\00=\00\07.\1D\00Peilf\00\06\00;\00\070\1D\00P8copy2\174ff\00\0B\00?\00\072\84\00\01\113=\01\01<\01\1D4c\00\01;\01\02:\01\1B6\1D\0003er}\0C[rf\00\07:\1B\00Q4erfc\1C\00Mc\00\0788\00\ADxpf\00exp\00\07>8\001xp2\1C\00K2\00\07<\1D\00a5expm1\1E\00[m1\00\07@\1F\00\814fabsf\00f)\02\1DB\1D\00`dimff\00\07\00?\00\07D\8B\01\02qfloorf\00\07\00;\00\07FB\00P3fmafB\00[ma\00\07HA\00\08i\002max'\00Kx\00\07J(\00\04#\00!in#\00\00s\02\1FL#\00\04!od#\00_od\00\07N#\00\01\E610fpclassifyf\00\0C\002\00\07P%\03\07\D9\00\10rr\011Pi\00\09\007\00\07RP\00\83\94\1C\00\00\00\0EI\19+\00@hypo\99\0E\01\08\00?\00\07Tz\00\01\815ilogbf\00\07\00;\00\07Vo\00@8isf\1Cq4ef\00\0A\00U\00\07[\02\1D%\00\80\0Dbool\00\02\01-\00\819isgreatK\02\05\0C\00_\00\07_\02\1D\F3\00\00\154\22\00Xequal3\00\01\11\00?\00\07^8\00\0115isq\01\01\07\006\00\07d$\00\01\1F\00q6isless!\00\00\09\00?\00\07hF\00\01\2211\1F\00\06{\00\05\0E\00?\00\07g2\00\02\123$\00\08\E2\00\07\10\00?\00\07j\AE\00\04\10nV\04\01\07\006\00\07o$\00\04_\01\84normalf\00\0A\00;\00\07q%\00\00\AC\00\80unordereH\02\07\0E\00?\00\07sv\00\01\814labsl\00l>\030t\B0\1E\22\00\00\06\000\00\0Dl\97\0F \05\08%\0005ldJ\02!i\00\08\00U\00\07vt\02J\00#I\19J\00\926lgammaf\00\08\006\00\07x&\00\12\00F\00\00f\002x\00lm\000y\1D\1F\1F\00$\1D\1Fm\00\17 r\00\926llrintf\00\08\00Y\00\07{\1D\1FM\00\EB3logf\00log\00\07\85t\02h\00Aog10\1D\00_10\00\07}\1F\00\01\12p\1F\00Kp\00\07\7F\1F\00Q4log2\1E\00O2\00\07\81\1D\00\002bf\00\01\03\1D\83Y\00\03\B3\00\02\B2\009\87\B0\1E\1F\00\926lroundf\00\08\00;\00\07\89!\00%7l\22\00\04#\00\1B\8A\F6\00\114\1F\040Pf\00\08\00T\00\07\8Ct\02\1F\00\10\09\9D\10B\00\0Et\02)\00\813nanPKc\00K\020\8D\87 '\00\10\91\22\00\F1\0C\0Ddouble\00\04\08\0E\96 \00\00\14\9B \00\00\0Dchar\00\06\99\03\104\84\02\03:\00ef\00\07\8Et\02;\00\00\1F\00q9nearby\E8\00\05\0B\00Y\00\07\90t\02\A8\00r9nextaf\FD\02\05\0C\00^\00\07\92t\02\83\02\DF3powfi\00pow\00\07\96Z\02\01\819remaindN\00\05\0C\00?\00\07\98N\00\01\806remquof\F8\04\02\0B\00;\00\07\9A)\00\02\FE\04\01\EF\00\02\B3\01\02\B2\01\16\9C'\00\01\1D\00\135\8F\01\03\8D\01\1B\9E\1F\00\B37scalblnfl\00\0A\006\00\07\A0$\00\02G\03\01\93\00\01\1F\002nfi(\00On\00\07\A2\E7\00\01\107\AC\07 biC\14\02\09\00;\00\07\A7\E0\03\113\CA\04\01\B3\089\A9t\02\1B\00\124\B2\08\02\B1\08\1B\AB\1D\00\113\B0\08\01\AF\08\1B\AF\1B\00\124\89\08\02\88\08\1B\B1\1D\00#6t\D4\03\13t\D4\03\1B\B3!\00\815truncf\00\07\007\00\07\B5\1F\00\10)\E6\030\08H\03\E0\00\13\01\BC\09\10*\8D\091\00\0A5\91\02A\01\09\87 \14\00\00\D0\00*\0A7\14\00\00\AC\00-\0A9\14\00G2\00\0A;\15\00\03\1A\00\01\0B\09)\0A\9F.\00\01i\00\1C>\13\00Ih\00\0AG\14\00\00\D0\04)\0A_\13\00\01J\08*\0A\A2\14\00\01\1D\08*\0A\A5\15\00\00\A6\07.\0A\A8\90\00\02p\07(\0Ab\1A\00\01s\02\12*A\05(\0Ae\1A\00\02\1A\01\00\CB\04'\0Ah\18\00\22\00*\C1\04)\0Ak\15\00\01\FA\03'\0An\14\000\09`$\FB\03\00\0B\00\10*E\03.\0A\8C\92\00\01c\01\19@I\00\01*\02*\0AI\14\00\00\BC\16)\0A\8F\14\00\01\8A\01\1CB\13\00Hh\00\0AK\14\00\10\0A\06\00\02\\\04`_t\00\0C\96\0A\04\02\01\7F\22\00\0F\002\95*a}\01\19UH\00\03\A2\0B \0AU-\00\13\018\02\02\16\00Hl\00\0AU\D3\0D\02\22\06\05\BD\04\22*a\BF\00\1DWJ\02\00P\00\1AWP\00\00\16\00Hl\00\0AWP\00\22*a\C5\00\1DYc\02\00A\00\1AYA\00!taA\00\19YA\00\01\9D\0B)\0A\98@\00\02\B7\0B\12\0A\99\04\04?\00\00\15\00Jl\00\0A\98>\00\04\9C\0B.\0A\C4\AE\01\04\1D\00Gf\00\0A\C4K\00\02\E5\04\05\1E\00Gl\00\0A\C4T\00\03Y\00\00\98\0BG\0A\E4\87 \96\00\018\05G\0A\E4t\02\95\00\97erfl\00\0A\E4?%\94\00\01\B7\0B,\0A\E5<\00\\cf\00\0A\E5=\00Zcl\00\0A\E5>\00\00\BD\0B,\0A\82^\03Z2f\00\0A\82>\00|xp2l\00\0A\82>\00\\m1\00\0Aw?\00\00\F9\0B,\0Aw@\00hm1l\00\0AwA\00\11)\E2\0B=\0AF\01N\01\01\1A\00\10f\1B\00\0DK\01\01\1B\00\10l\1B\00\0DH\01\10)\F0\0B-\0AOO\00\01\05\00\01\1E\00\10f\1F\00*t\02S\00\01\05\00\01\1F\00\10l\1F\00*?%W\00\06\\\00Ox\00\0AI\AC\00\01\00F\0C\00\1B\00-t\02\AC\00@maxl\1B\00.?%\AC\00\00\DF\03\1FLP\00\02\001\06/\0ALP\00\02\10iC\02\1ELP\00\12*\06\0CK\0A\93\87 P\00\02\1A\00kf\00\0A\93t\02P\00\02\1B\00ll\00\0A\93?%\A0\00\022\0CU\0A\18\01I\19Q\00\03\16\00\17f\17\00%t\02\17\00\17l\17\00\01D\00\13*V\0AH\0A\E6\87 #\05\03\A0\06F\0A\E6t\02D\00\03\17\00fl\00\0A\E6?%D\00\13)M\0A1\0A<\01X\09\04\89\00\02\17\00\17f\18\00&t\02\18\00\17l\18\00\05G\00\01\12\08-\0ABH\00\021\08-\0ABI\00\00\19\00\17l\19\00\01J\00\12*\84\0AF\0Az\87 G\00\13*\A0\0AF\0Azt\02D\00\02\16\00jl\00\0Az?%A\00L2\00\0A\85@\00\00u\03\02\17\0B\07?\00\00u\03\1C\85>\00Lb\00\0A}>\00\00\95\01\026\0B\07>\00\00\93\01\18}>\00\13)M\01!:\01\C8\0A\03@\00\14)L\01\05\17\00%t\02\17\00\17l\17\00\04D\00\02J\01\1C@E\00\03I\01\1C@F\00\03H\01\19@G\00\10*\E7\0A \0A\C9<\00\13\01\AD\0A\11*\C0\0AJ\0A\C9t\02\14\00fl\00\0A\C9?%\14\00\16)\C6\0A(\0A&A\03\07\1A\00\10f\1B\00't\02\88\00\05\1B\00\10l\1B\00'?%\D2\00\06\EE\0A/\0A\03\91\03\00\05\1F\00\10f \00\0E\96\03\05 \00\10l \00\0EK\03\00 \00 to\1Au9\00\0A\05`\00\0C \00\10f!\00&t\02a\00\0C!\00\10l!\00,?%b\00\06a\0B/\0A\10\C1\00\00\05\1F\00\10f \00\0E\C1\00\05 \00\10l \00/?%_\00\00\00\94\0B-\0A3\\\00\02#\09\03!\00\10f\22\00*t\02^\00\09\22\00\10l\22\00*?%`\00\04\22\00\01\D0\01\18\00c\00#\00)\99\02\18\00W\00#\00)\98\02\18\00K\00#\00)\97\02\1B*B\00\03\96\02\1B*C\00\03\95\02\1A*D\00\04\15\0C(\0A\22F\00\02\17\0C\04\1D\00\10f\1E\00\07M\00\0A\1E\00\10l\1E\00\07T\00\08\1E\00]n\00\0A\14\01G\0A\03\1C\00\10f\1D\00\08W\00\08\1D\00\10l\1D\00\08V\00\01\1D\00\13*\E3\0B'\0A\EBU\00\04\16\00Gf\00\0A\EBO\00\04\17\00Gl\00\0A\EBI\00\22\00)\07\0C(\0A.\99\00\03\16\00\10f\17\00\08D\00\02\17\00\10l\17\00\08D\00\F0\03\0A5/\00\00div_t\00\08>+\01\0AE/\89k\02\10\00\C0F,\05\10\08B\06quot\00\0B\01 \08D\E8+2rem\0E\00\10E\DE+\F1\0B-abort\00\08O\02\01\01\01)atexit\00\08S\02I\19d\00 \8C/,\0B\F2\00\91/\00\00.)at_quick_$\00\19X$\00t*atof\00\08\AA\0B#\91 \14\00ji\00\08hI\19\14\00fl\00\08k\B0\1E\14\00\E1)bsearch\00\084\03\180\18\00\10\19\14x\01\05\00\15\1F\05\00 >0\93/0\0E\1E0?6B-0\00\00ix:\00\0E\12\B0-a\00\07\08\13T0\184\80ompar_fn\0E\01\80(\03\0EY0\00\001\8E\00\06`\00 \00)\F7xcoc\00\08\1E\02|\00\05r\00\B5\00)div\00\08T\03(/\94\0D\02\FE\01\122\03\014i\02\01\AB\0D\D1\11free\00\085\02\01\01\09\18<\00\C6getenv\00\08z\02\D80\EC\00\10\0EB\10\11)\D3\113\08I\03\06\01\00\07\001\00)ln\00EV\037/\15\00\03\1A\00\13m\A3\00\18\1B\A3\00\A4\00)mblen\00\08\9A4\0E\00a\00\05\1B\00\B2stowcs\00\08\A5\03\1F4\00Ga1\00\00#\00p\0Ef1\00\00\0Dw\CC\10\10_!\180)mb2\004\00\08\9DO\00\0B1\001\11qs*\02#>\03\E3\00*\09\1F\9B\01\182\1E\02\16o\1B\01\833rand\00\08\C5\A1\083)re\CF\00\14&\CF\00\05N\002\00\11s-\002\C7\01\01(/ \00*)\87Wod\00\08u[\020\09$2\C3\00$\D80 \00jl\00\08\B0\B0\1E \00\02~\00\02@\00\7Ful\00\08\B4-0!\00\01\A8)system\00\08\10H\01\80\00)wcstom\A8\01\14\A8C\01\00p\004\09\A42\AD\00\81\0E\A92\00\00\14f1-\00\00,\004\00\08\A1D\00\01+\00\00\1B\00\F2\00\00\02__gnu_cxx\00\0C\0D\CC\CD\1B\12\D2\CD\1B\12\D6\CD\1B\12\DC\C6\1B\12\E7\C6\1B\12\E8\BF\1B!\E9\EE\07\00\12\EB\D4\1B\13\EC\C5\1B%N9N\00p3divExx\FD\030\00\0D\D9X\00\12\01\1F\14\02$\14t\00\0AQ3\00\00l\0C\04\10P\0C\04\12L\0C\04\00 \00$\08N\0C\04\01\0E\00\10O\0C\0412_E\BC\01\16u\BC\01\12)~\14U\08L\03\1D\1Fa\00\00\16\00\01\AC\02-Z\03w\00\01\E0\03fl\00\08p\1D\1FL\01\03\A4\01ol\00\08\C8\1D\1F\A5\01\09ol\00\08\CD}\02\22\00\07[f\00\08{t \00\03\1B\00{ld\00\08~?%\1C\001\0C\0F&\0A\1E!\0F'\0A\1E!\0F(\D9\1D!\0F+\11\1E!\0F.\A1\1D!\0F1\8E\01!\0F6B\1E!\0F7B\1E@\0F9O\17\07\00\11:4\1E!\0F;4\1E!\0F<4\1E!\0F=4\1E!\0F>4\1E!\0F?\8C\1D!\0F@-\1E!\0FA-\1E!\0FB-\1E!\0FC-\1E!\0FD-\1E!\0FF-\1E!\0FG-\1E!\0FH-\1E!\0FJ-\1E!\0FK&\1E!\0FL&\1E!\0FM&\1E!\0FN&\1E!\0FO&\1E!\0FP&\1E!\0FQ&\1E!\0FS&\1EG\0FT\AE2\C1\1B\12f\C1\1BKf\00\06;{\12\126>\10\03\E1\1BKf\00\06=!\00\225a\FF\17\01\07\00=\00\06?@\00\01.\10\03\E5\1BMf\00\06A!\00\02\C9\1B\03\CA\1BOf\00\06D\CB\1B\06\03%\00Of\00\06EF\00\01\13h \00\00g\00\1BG!\00\1155\10\02\ED\1BMf\00\06I\1F\00\00\EE\1B\02\EF\1BKf\00\06K\1F\00\159,\10\07\F1\1BOf\00\06O\AB\00\01\124Q\01\02P\01\1DSi\00\02O\01\03N\01\1CW\1F\00\01\0A\10\02\DC\1BOf\00\06`\FA\1B\00\02\1E\00Of\00\06e\C2\1B\00\222f\E0\1BOf\00\06l\FE\1B\00\02\1E\00Kf\00\06m\1D\00\126\05\10\22f\00\08\00;\00\06o!\00\105\B0\13\12f\01\1CMf\00\06p\1F\00\01\02\1C\02\03\1COf\00\06r\19\01\01\116\E0\13\13f\05\1CKf\00\06|F\00\124\06\1C!f\00\F9\0F+\06\80E\00\08o\00\01\08\1C\01)\00[xf\00\06\84*\00\04%\00\22in%\00\01\9B\02\1F\86%\00\04\22od%\00\00\F3\13/\06\88\B9\00\03\11r=\01\04\E5\1BGf\00\06\8A(\00$\94\1C(\00\02\B9\0F\04\E2\1BOf\00\06\8CO\00\02\02\94\0F\03\E4\1B@f\00\06\8E\AC\04\18\01\C5\18\11dp\00\03\0B\1AGf\00\06\9BH\00%I\19\CB\18\027\0A\04\0D\1Amf\00\06\9Dt\02\EE\18\00\91\0B\04\E3\19if\00\06\A6\1D\1F#\00\148Q\0F\05\12\19Kf\00\06\A8%\00\126\EE\19\22f\00\08\00^\00\06\ADt\02!\00\13p!\00\00\B2\00\1F\AF\11\1A\00\122 \00\00\9E\02\1F\B1\1F\00\00\00\13\01\03\12\01\1F\B5\13\1A\00\02\1E\00Mf\00\06\B6|\00\04\E4\00\03\E3\00;\BB\B0\1E\06\01\05\E2\00\04\E1\00\1B\BD#\00\125\07\02\03\F5\19jf\00\06\C7t\02\F6\19\02\17\1E\15n\AF\0E\07\9B\192f\00\06\03\0F\06P\00\00*\00\04\84\0E\08\9E\19Of\00\06\CD\14\02\01\104\9F\19 ff\A0\19Of\00\06\E7#\00\01&10\16\0E\08\A3\19Of\00\06\EF0\00\01\137\E4\0D\07\A5\19Kf\00\06\F5+\00\02\BE\02\104\03\01\03F\01\03E\01&\00\01*\00\03\F4\19\03E\01\04D\01\17\AA!\00\00A\00\148o\0D\06\AC\19Gf\00\06\1EH\00\02\99\0A\00,\00\137C\0D\05\AF\19\\f\00\06\16\01\E6\02\134s\19\00\CD-\01_\06\172#\00\01\1E\00\135_\06\03^\06\1C6 \00\1247\06\026\06\1D<>\00\036\06\035\06\1C> \00$7tb\03\14tb\03\1C@$\00\126y\0D\03\9E\19Hf\00\06B\22\00\03\C7\09\02q#@5\10:$\D7\00\B4\0E\AB<\00\00\0A\BA<\00\00L\99-C%\05\05l\0C\00@\08\04\22\06\FE-\00@\00 \04#p\09\00\F4-\01\0E\002$\02#O-1\04/\08\8A\8F\00\F1,\22\04\11\0C\00\108\0C\00\17\12\0C\00!7\04\80\94\10\01\86\0Aa*\00\00\04\0A\08>\8E\A2@\01\1C\00\03\19\1C\00\04\177-u\04\00\18\00\00\F0\11\10\00\01\E4\8F\07\10\00\01\CE\84\07\10\00\10\01cC%\F0!\10\00\01\01\00\D2\F0!\00\03\1B\FF\00\04\1D\08\00H\04\16.\F6\03\04\1C\08\00\C8\0E\00\00\F8\0E\00\00\04\1E\04\00 \00\\\8E\00\08\00\13\FE\08\00\13\FD\08\00\13\FC\08\003-\03\00x\00\11\00\CC\00*\1D\00\10\00*\FE\0F\10\00\04\F6-\1B\F6\18\00\04\16.\1F\D40\00\04\1B\CC\18\00\04p.\1B\A6\18\00\13\98?.\1B\9E\18\00\04\CE.\1B\92\18\00\04\F2.\1B\8A\18\00\04\12/\1Bz\18\00\04:/\1Br\18\00\04Z/\1Bb\18\00\04\82/\1BZ\18\00\04\A2/\1FJ\18\00\04\1BB\18\00\04\EA/\1F2\18\00\04\1B*\18\00\0420*1\0E\18\00\04C1\1B)\18\00\04\01\00/\B0\000\00\03/\A8\000\00\03.\\\05\18\00\0F\01\00\FFR\F1\11\EF\1F\E0\FD\03<d\00\01\00\87\00\80\07\98L\01\01\87\FC\FF\FF\0F\1C\00\00w\03\00\00\C8\F0 \00\E0\BC\7F\00\07\01\07\00\80\03l[\0F\00\80\CE\01 \E2\C0 \04p\00\A0\E3\EF\1F\E0! \00\A0\00\01\F7\0F\00\00\10\\\00\0A!\03P\E0\\\02\00\07P\00\14\\@\00@\03\00\F7\0F\10\001\00\00'\18\00;\04\007 \00\13\07\18\00\22G\00(\00\10\17\08\00\14L \00\14\02@\00\A1\03\07\00\00\02G\\\02\04'\08\00\04\80\000\03\F0\87`@\A6\01\03\03\07\14\00\00\94\EF\03`\00\01 \001\04\F0G \00\22\04\04 \00\04h\00\04 \001\05\F0\07 \00\22\05\05 \009\05\00W \000\06\F0\87/\010\01\06\06 \00Y\95\EF\0A\00g\C0\001\0B\00w\10\001\0A\00\A7\08\00:\0B\00\B7@\00\03\C0\00\04@\00\1B\08@\00\13\09@\00\12\08\88\01I\\\09\00\97 \00\13\06X\00\13\07X\00\1B\06@\009\07\00w\18\00\04\10\00\04 \00\0CX\00\04\10\00\06\80\00\1F\97\80\00\0A \0B\00\00\01\98\10\1C\0C\02\F7\0F\00\08\10\E0\00\01 \001\0C\00\C7\10\00\F2\01\0A\0B\F7\0F\00\80\D7[\0B\0B\F7\0F@\06\D8[ \00,g\00\18\01\11\08(\02&\B0\A0\80\00\00\80\013\10\1C\0A`\00\0C\80\00\04@\00\22\08\09`\00f\09\09\F7\0F@\05`\00\0C\B8\00*\06\08`\001\07\00\87`\00\13\08`\00\0F \01\05\22\06\07`\00f\07\07\F7\0F@\04`\00\0CX\01 \05\06`\00\17\90`\00\11\C7`\00\1F\05`\00\04\04P\02\08`\00/\C0\02`\00\07\1B\04`\00\11\05\F2\953\10\1C\06`\00\07\A0\02\03 \02\02@\00\22\04\05`\00f\05\05\F7\0F@\03`\00\04\F0\02\048\00*\03\04`\00\13\00\80\03\13\02\A0\039\03\00'\80\03\04P\03\12\04@\00\14LP\00$\0F\19\A0\00 g\020\04\04`\00\04h\00\22\0F\19`\04\87\04\04W\00\00\038\\\88\00\18\02`\04\0C8\00\010\00%\00\10@\001\03\03G@\00\06\88\00\19\17@\00\04X\00\04\08\00\010\00'\00\10\80\01\1FG@\01J\13\05 \03\1F\03`\00\04\05\B8\00\07`\00#\C0\01`\00-<d`\00\11\04`\00&\B0\80\A0\00\13G \02\02 \00\04\D0\00\04 \00\0Cx\00\04p\00\05 \01\0Bx\00\04p\00\01\A0\04:<d\00x\00Q\90\80\04:G\C8\05\05`\00t\04\F7\01\00\00)88\00\0C`\00\F7\07\05\047\00\C0\01\F86\04\047\00\00\00H8\04\06G\00\00\80\80\012\07W\00\18\03(\87\02(\01\06@\03\19wX\00\04(\03\05 \00\1A\07\B8\00\04(\01\0F@\03\0B,\B0\A0\00\02\0F\A0\015\03\00\02\17\80\00\02\1F\01`\02&\0F\00\02\06\06`\00\F0\05\07\03G\00\80\03m[\07\00\07\E0\80\03\90P\0F\00\80m\88\07\04 \001\0F\00\07\98\07\13\05H\05\0C`\01\04X\00\04`\01*\04\05`\01/\05\05`\01\03\22\0F\19 \00\04\90\02\0C\88\02\0F`\01E\04\00\01\05\80\00\03\90\02\0C\88\02\0C`\003\05\04'\88\02\11'\88\02\04 \00\04\90\02\06\88\02/\07\03@\03\01\0C\88\02\04 \00\09\B8\05\07(\01\06\00\01\1FW\80\07\03\04\C0\00\03\90\02?\05\00\C7\A0\01B\04\90\02\13\05`\03\1E\06`\00\09\A0\00\0F`\00\01/@\03\00\02\0F\13\07 \00;\08\00W\00\01\13w`\00\1F\87`\00(!\90\80\B8\054 X\\\F0\06\05\80\01\0BX\02\04\C8\00\04\80\00\0CX\03\04h\00\04\80\09\05\00\01\03h\00H\05\07G\00`\00*\07\08`\00\05\C0\01\0F`\00\00\1F\C0`\00\08\04\C8\00\22\04\06\C8\00\05@\00\10\04p\00\EFh\\\03\037\00\00\02\80Y\05\00G\00\E0\004\18=\80\00\04\98\06\0C`\00\0F \06*\0E`\00X\80\05\00\F7\0F\E0\05\0F\C0\00?\0A`\00\0F\C0\005\05\A0\01*\00G@\00\0B@\08\0C \00 \03\FFP\01\15[x\00\86\05\F0\07\00\00\08\00\01\A0\05pW\00\80\03\B1[\03\18\00A\B8\04\01\03\08\07\15h`\07\02\90\08@\A0\\\03\03\D8\08\22\80P\10\00-\80P \05\00@\00d\98\03\01\04\03G@\00\03@\02\117@\00\0F\A0\00\05\04\10\00\13\03\D8\04\13\000\01\0C`\00\05\E8\09\1A\03\A0\03\86\03\03\F7\0F@\00\D8[\00\0A\197\A0\03\22\02\02\00\04\04\C0\0D?\02\007\C0\0D\02\05 \00\0F`\00\14\02 \05B\1F\00\04\02\F8\01\04\C8\06 \00\0F\08\00\A4\B0P\EF\07\E0\FD\00\90\1F\00\10\00\0C\08\00\00`\003\00\BC\1F\00\07-\00\E3 \00m\07\80\FC\00\BC\7F@\00\040\00a\FF\07\00\FC\00\80@\00\\\FF\FF\0F@\E2(\00\13\E0 \00\0F\80\00\05\B3__CUDA_FTZ\00\0B\00\AFPREC_SQRT\00\01\001\00\95\0E\03\1B\13\0D\D0\A1\00\01\00=\19\02\000\00\08\01\00\1F\0B@\00\04\13Y8\00\1Fn@\00\0C\13\13\94\11\0C\01\00!\C8\04\07\00:\00\F8\01\B8\11\22\08\00\01\00\22\18\00\01\00.\0D\01T\00\00\01\001\C0\06\00\01\00?\88\05\00\80\00\0A\1F\1A@\00\04\13H\E8\13/\BE\03@\00\0B\1F6@\00\041\06\10\00\01\00/;\01@\00\0B\1Fb@\00\04\13AI\A4?\9D;\00@\00\0A\1Ft@\00\04!\DEL\07\00O\00e\07\00@\00\0A\1F\8C@\00\04\13C_\02/s\00@\00\0B\1F\A4@\00\04\13\B6@\00/\CE\02@\00\0B\1F\B2@\00\041\84W\00\01\00?\E5<\00@\00\0A!7\00\01\00+p\00\01\00!l\94\07\002\00$\00\01\00\04\07\02*\04\00\01\00\1F^@\00\04\13\90@\00\17\94@\00\1F\14@\00\00\12\FD\C0\00\0D@\00#$\95\98\AB\0F\80\00\04\04\C8\02N&\01\00\00\96\A53\00\00H@\00\17\10@\00\17\058\00\04\18\00\1FJ@\00\04\1FX@\00\00\1F\06@\00\00.\BE\01\D4\00\00\01\00\13h@\00&\E0\01@\00\1F\0B\80\03\00\1F\DA\C0\00\05\1E\97\80\00\1F\04\80\00\00\13\BD\D4\01\0C\04\04\13X@\00\13\\\80\00\1F\00\80\01\04\13@@\00*\06\00\01\00#\C0\98 \00\19\0F\C0\01:\0D \00\01\00\1F\AD\04\05\05\03I\16*\1C\00\01\00*\01\00\01\00\13\A2\D4\00\0C@\00\13\1C@\00\1F\04@\00\0C\13\06\9C\00\04\C8\AD\0C\01\00*\E0\00\08\00\17\08H\00\17\05(\01\0D\BF\00\1A\10\08\00\088\00\18\06)\17\0C\B8\00\1A\00\B8\02\0Cp\00\0F\A8\00\18P\00\00\00\00\00\00\00\00\00\00\00\00\01\00\01\01H\00\00\00\08C\00\00\00\00\00\00\06C\00\00@\00\00\00\01\00\08\002\00\00\00\00\00\00\00\00\00\00\00\13 \00\00\00\00\00\00\00\00\00\00\00\00\00\00z\92\01\00\00\00\00\00\00\00\00\00\00\00\00\00\F0'\0A\0A\0A\0A.version 8.1\0A.target sm_50, debug\0A.address_size 645\00\FF\11global .align 1 .b8 blockDim[1];\22\00\03Ogrid!\00\0A\01C\00?Idx\22\00\07othread#\00\0A\F0\03_$_str[11] = {95, \04\00P67, 8\08\00C8, 6\14\00\EF70, 84, 90, 0}O\00\0A\7F_$_2[17S\00\0E\108S\00R2, 69 \00\01\14\00R3, 81\18\00\2284k\00\FF&\0A.visible .entry _Z6euclidP7latLongPfiff(\0A.param .u64%\00\05\11_#\00?_0,-\00\18\171-\00/32-\00\0C\162-\00\1Ff-\00\0E\1F3-\00\19\A64\0A)\0A{\0A.locx\01\128x\01\11_\15\00\A0_depot0[56\F0\01\CBreg .b64 %SP\0F\00\14L\10\00\A5pred %p<2>\22\00\8532 %r<13\12\00\00\99\00i%f<14>F\00qrd<17>;\90\00\FA\0A\094 59 0 \0A$L__func_begin0:\1E\00\83\0A\0A\09mov.u\85\00\1B,\B8\00q;\0Acvta.\13\00\04%\00\13,\AF\00\22ld(\01\03\8E\00O2, [-\01\0C\1D]5\00\1F15\00\0E\1835\00\11u\0A\01\0F5\00\0F\1925\00\02\1B\01\0F\A0\00\0F\1F16\00\00\0Fl\00\0F#0]%\01#to\81\03\04<\00 3,\06\00\132\1F\00\0A\1C\00\114\1C\00\1F3;\00\05\115\1F\00\1F1;\00\02\116\1C\00Q5;\0Ast\13\00q[%SP+8]\16\00\1A6\16\00\2216\17\00\124\17\00\2232\17\00!24\17\00\111\16\00\15f\16\00\01D\00\1Bf\16\00!32\16\00!2;I\024tmpB\02\933 79 180 B\02\01\9B\01\A52, %ntid.x0\00\1510\00-920\00\00#\01Incta2\00\1522\00-672\00\009\01\021\00\15y1\00\153\D5\02P62 420\00qul.lo.s3\00#5,j\00%r43\00\164d\00\1D6d\00\00b\01\0C\95\00\185d\00\8355 \0A\09adda\00$7,f\00'6;&\00,29\8A\00#8,$\01%r7Y\00\156\8A\00-53\8A\00J9, %O\01\187\88\00)69\88\00410,e\00\189\89\00H7 \0A\09\00\02\123\17\02&10%\0006 28\01$ldf\02$7,Y\02\08%\00\2236%\00\02p\005d8,Q\00\09&\00\104q\00$hl\96\04#9,-\0013;\0A\AE\00\02\17\00\02\AF\00\11d>\01(d9A\00\101\8C\00\08\C9\02B40],3\00\05\09\01\168\09\0137 7\BC\00\02\07\01\1F1\97\00\01\00K\02\09&\00%2,\0E\03\09&\00\00\E3\00rsetp.ge\E8\003p1,V\00\006\00\05\81\00\1C9\81\00\90@%p1 bra !\00\E5BB0_2;\0Abra.uni\13\0051;\0A\0B\00\14:J\00\161\96\05Y68 19\89\01\05\CE\00\181\CE\00I8 33\8B\01/12\F5\00\01J8 31\8C\01413,/\00\1A2\8E\01$4,o\00\00\07\00\183E\00\0E\90\01\03p\04&14'\0039 2\1E\02\02\DC\05%3,X\04\08%\00*32\DF\00%5,\E3\01\08'\00(41L\00\104%\00\00-\00\0AK\00\00-\03csub.rn(\00\225,y\00&%f\99\00+70\99\00%6,\DB\04\08%\00\0Ar\00\147r\00)+4&\00\0Et\00\228,T\009%f7O\00\136\FE\03\05)\00$9,.\00\188\C6\00\01\C5\036fma)\00\01\19\03%f5\05\00\1A9\93\05\124\A8\05\06\0B\03\141d\05\985 174 113\CA\00\05A\02*4]H\00\120H\00\161H\00\04z\05@6 31H\00\197H\00\04b\02\05\A9\01\03'\00\100\EA\00\B4sqrt.approx0\00\01\88\01\071\03813:\F7\00\0A\07\02\04\95\01\1A4.\02\101\95\01\05\B5\00\22rd\D2\06\17f\9F\02|71 3 \0A\09i\03\07w\0054:\0A\16\00\05\82\00072 [\006ret)\00&5:.\09\F2/end0:\0A\0A}\0A.file\091 \22/nethome/cahn45/CuPBoP/cuda-12.1/include/nv/\89\0C\13\22=\00\1F2=\00\18\E4vector_types.hB\00\1E3B\00\F1\02llvm-vortex-with-L\00\F5\03build/lib/clang/18Z\00!__\13\00\10_(\00\10_(\00wtin_varg\00\1F4\A9\00\06\F1\01examples/nn/./nnF\004.cu:\00\1F5\A1\00=Vcmath\9A\00\1F6`\00=\0A_\00\1F7_\00A\F8\00_forward_declar\D0\01u8 \22/usr<\00fstdlib \00\139 \00\00i\00\F6\0Bgcc/x86_64-linux-gnu/13/..\03\00\04H\000c++\1B\00@bitsT\007_abu\00+10v\00\0DV\00\018\00\00\BB\00Hcall:\00\1F1\90\00+\01\CD\01\05M\00\1B2\87\00\0A\8B\01/13l\00,\02L\01\05O\00\1F4\DB\012astddefD\10'_t\AD\00\1F5\AD\00+\0C\F8\01/16P\00+\01\F3\10\02\06\00\01U\00\91section\09.\13\00p_abbrev\B2\0E b8\FF\04\01\07\00(7 \0F\00\133\0F\00\128\07\00\2219\08\00\125\07\00\1A3\1D\00\126\08\00\03\07\00\1B2;\00\0AY\00)18\0F\00\190\07\00\122\07\00\1A53\00\0An\00\0A2\00\03\1C\00\1F41\00\08*11\08\00\1B5\18\00*59\10\00\0Aa\00\03Z\00\1F4w\00\02\03J\00\142R\00\03\1F\01\0A,\00\1A5C\01\04v\00\04\B3\00\0F\B4\00@\03\89\01/13\B4\00\08+73\DA\01\0Fb\00\0C\145U\00\0Ak\00\03\07\00\03\B1\01/46\88\01\02\0Fb\00\13\136L\00#12\10\00\1A3\10\00\0Ar\00\198]\01\1F0\D5\00\04\1F2C\00\09\1F9C\00\11\190\07\00\04\FE\00/225\00\04\0F\F9\00!\190\07\00/11L\01\02#13\A8\00(64\\\00\0Fj\00\1B\0C\A8\00\0Fs\01\1B)12m\00\1F0t\00\13*24t\00\190\07\00\04\A4\02)36\17\00\0A\D7\00*62S\00\0C\08\00\190\07\00.14\8E\03\0F\A4\01\00\190\07\00*15\1E\00\0F\A6\03:\1F5r\00\02\0F\A6\039\1F5\A5\03\11\1F1\A6\03)\1F52\02\22\1F8\CC\02?\1F5\CB\022\1F9\C8\038\195D\00\03\07\00\132\08\00/38b\00\0A\190\07\00*210\01\1F00\010/111\011.22\CA\01\0F\83\00\1E\0Fs\00\0D*500\00\0B\83\00\1F3M\02?\0F\9A\004\1E4\9A\00\0F\B7\01e\0F\AA\00\0C\1A5}\04\1F0e\00\03\190\07\00*26\DF\00\03\17\00*715\00/32z\00\0A\1F7$\01W\0F\8A\00\0C\1E8\B7\03\0Fr\00-\190\07\00/29\EC\00?\1F5\EB\00!.30\EB\00\0Fq\00,\1A0K\00\1E1\EA\00\0F\F4\0B\0E*64\A6\06\0F\04\022\0C\08\03\0B\A8\00\1F2\09\01\01*51D\00\1A2\98\00\0F\81\00\1B\0F)\01\0C\1A3\92\0A\0F\82\00`\1A4\9D\02\03\17\00*495\00\0F\BB\01\0B\1B8\83\00+89\10\00\1A7\10\00\190\07\00*35\1E\00\0F.\02\12\0BC\00\1A6\C6\00\1F1\C6\00`\1F7L\02 \0C\A1\00\03\17\00\0B%\08\198\16\00\0F\F0\01\05\1F5Y\0B\11*39L\0F\0FR\02\02\190\07\00\04\E4\0E\0F\B7\049\0F\C7\06\15\0B\8A\00\0EW\04\0Fs\00\17\1F59\07#\0B\82\00\1F2\82\00(/11\83\002\0B>\00\1F0E\00\03\190\07\00\1B4\15\02\0F\C8\0C\04\0C\08\00\0F\CA\00\0D\0Be\00\1A5\1D\01\1F0\9F\01 \0F\0C\01\0D\05v\02\191\17\00\190\07\00\04\81\00/21\1E\00\01\03\07\00/47\10\0E\02\0A\07\00/48\AF\0B\02\0A\07\00*49o\00\0F\E7\01\04\0A5\00\1B5\AC\00\1F1-\01e*51\89\00\0F\B6\01\1B\0F\D2\021/52\0B\01\02\0Ea\04\0F\99\00?\0B\89\00\1A3U\00\1F0d\00\0B/11r\05\11\00\12\1C\1D}l\15Ainfoj\15\8932 15585\1F\06\120\19\00\09\98\15\09\F7\00\03z\00\149\8A\00\2208\10\00\127\0F\00\2210\08\00#03\E7\08\02\0F\00#18\17\00\03\10\02#14\08\00\125\08\00\130\08\00)11G\00\03?\00#49M\10\02\0E\00\186\15\00\03\0E\00)551\00\04\86\00\04g\00\1B6\08\00\192\7F\00#58\98\03\08\07\00\04\C3\00\06\9C\00\03=\00\05U\00\02(\00(98\88\00*99\C9\00)09T\00\04\08\01\1C1\08\01\1A6 \01*20\84\00/12\10\00\03\1B1\B3\00\1A8\08\00*18\86\00\1F6\DA\00\0A)32\D1\00\189\07\00(53\E7\01(49u\01(50\1C\00\03\10\01(99\1C\00#52\F6\05\08\C9\01(511\00)50T\00\131\06\05\09#\00\193\0E\00\184#\00\03\93\008102@\00\03x\00\04X\01\0Ad\00*10\1E\00\04\D6\00\137\16\00\180\0F\00\04\91\00\151'\03\06\88\0E\02\0E\00\141[\09\04\BE\02*95\13\02\0AX\00/978\02\02\1F7\87\03\00Zline ;\06\03c\00\04\BB\00\0E\9D\02\0A\80\02\05\E3\00\187n\00\03\83\00\065\00\0A\AD\01\1833\00)67\A1\00\128+\00)66o\00(803\00\04u\00\04\CE\02\05o\00\1B9\D5\02\1A8/\00)15F\00)10\08\00!0\0A3\22\0B?(\1B \16\00\00'\1F\0A\F8\0A\06\9E\01\158H\00\07\1E\00)6 \A4\00\04\99\03/03h\01\02\0A=\00?00 &\00\02*97h\03\180z\00\04 \06\05\E9\15\03\17\01)95\06\01\05T\00\0B&\01)99k\00\0CR\04\02d\00\0Ff\0C\03\1F4z\00\0B(51\FF\01\190)\0D\0F;\00\14\185;\00\1F7;\00\13\183\CE\03\1A0\AA\08\0F;\00\12\03\DD\03\1A0\DA\07\0F;\00\13\181;\00\1F3;\00\13\1E4\B1\00/60;\00\1A\189;\00\1F1;\00\19\09\EC\00/62;\00\13\1E5\B1\00/70;\00\19\09v\00\1F7v\00\1A(53;\00\1F5;\00\13\1E6\B1\00/80;\00\19(54;\00\1F6;\00\1A\185;\00\1F7;\00\1A\187;\00\1F9;\00\13\1E7\EC\00\1A9\CF\09\195\07\00\0F\B2\04\1D\03h\00\04~\06\06\1F\00\1A5O\04\1B4\1B\08\192F\00\06\18\00\1D1\95\05\0Do\04\1A1\FD\1D\0F\B1\00\1C\04\9A\00\03\0B\07+42^\00(2 \84\05\163-\00\05\FD\1D\0F#\01\81\04\BE\00\194\CD\00&1 @\01i32 659\18\00+9 \04\01\0A\19\02$108\00\04l\05+98\F9\00\195\D2\00+95\AA\00\1F0\08\01\02.16\B9\00\04\93\05\04\82\0C\139\8F\02\129&\00(78)\04\06Y\00\188\8F\03\05h\00\0F\97\01\13/54\97\01\04\0AF\00\0Be\07(49Q\03\05\1E\00*15\02\01\0F\A2\08\02)99b\00\05{\07\122.\00(69\EC\00(83p\00)95~\00\199v\00\0B\F4\03+11\86\00)08\10\00\0C\87\00)110\01(69\9F\01905 U\00\1F9\E2\00)\09\F3\013142`\02\1535\14\0F\9F\02\02#20\D6\02\0F$\02\95\03\B0\05\06\C2\03\03e\00\05i\01\1B87\00\0C^\00\1F5\10\02\87\04h\10\04\1E\00\0F\D5\00\1D\190\E9\01/47\03\02#\0B\F5\10\045\00-71O\00\0C\22\00\1C2R\00\0B\22\00$20\22\00?446\22\00\04\133\22\00?524\EB!\09\121K\00\07q\01*11}\02\176\13\01\03\C9\07\1B4D\00\05\E1\17+10\CD\01\1A5\BA\02\1B1p\01(00}\0F\0C\83\00\06/\00\1F3'\00\19\09\08\07\188\87\22\09u\01\03\81\14\03\07\00\07\C8\0C\0A\A0\02\09\1F\0B\1A1y\07\151\0C#\0AE\22\04o \120t\00;8237\00\1847\00\0F\C6\07\01\06K\00\1F1K\00'\1B4K\00\1F2K\00'\1A8\C9\19\0F-\01\12\05X\00\187X\00\1F1\F6\07\02?839T\03\02\05\A5\00\0F\11\00\0F/0 \A4\00)\1F8\A4\00(*44\82\00\03L\00\0F\FB\05\03(75h\10\06\82\04\0F\A5\00\02)99\B8\04\03I\0C\04\88\10\055\00)10\AC\03(51\14\05\04=\00\04$\00\03\BE\00\05\F9\05\1A0J\05\0B\F8\03*11\1F\00/32\83\00\19\0Be\01\04@\01\0B8\01\1F1o\01\029906\18\00\1A0e\01\0F|\04>\1F5\C9\00\02\09M\04\1B4M\04)66\84\16\00\D4\00,58\98\00\0F\22\01\19\192\87\02\0B\A2\04\0FR\00\1A\0C\AA\04\139\09\00\0F\A3\04\15?94 \07\04\00\02\\\00\0E\9C\04\0FD\00\19\02H\02\0E\95\04\0FD\00\19\03\D2\02\0B\8F\01%91\FE\06\0C\A1\01\195\C1\01\05\9A\03\1A5f\03\197\1A\02)97%\00\1B8%\00\1B5\8D\06\1F6\9D\01\02\0B>\00\0B\BB\06\04z\00\120U\00/68\0D\04\02)95c\00\180\16\03\03\98\19*78\0D\1B\0Fw\0A\0A(53W\00\0F\05\01\A3(49\AA\10\199\07\00\0C\DC\16\044\00)99\F3\15\0F\D4\002\04\\\0C\0Fm\05\02\0Bh\02\0F\98\00a\190&\02+9 g\03\191\07\00\0F>\02\FFa\1F1>\02\84\1E1>\02/80>\02\FF\7F\1F2>\02\84\1F2>\02\00\1F1>\02\0B\04\BC\07\0F6\0B\05\0FE\02\BD\1A9\B5\01\0F\10\0C\13\0F\EA\01\02\0F\D3\0B5\0F{\00\0B\0A\CD\01\1D4\02\0B\09\CD\01$8 d!\04\BB%\1A1\BE\0B\03\0F\00\0F\ED\01\E5\1F3\99\00\03\03\81\00\046\00\0F\F5\01Q\0F\83\00\13\0A\FD\01\1D5\ED\0C\0F\FD\01\1A\04\F3\0B\05\FD\01\1A5$\01\0F\D3\01\93\0A\13\01\198\E9\00$1 \1D\00\0C\12\01/52\12\01\FF\0D\169\19\00\1F7q2\02\0F3\04\D6\187R\17\03\04\04(82\EE\00(839\00\1F0\18\042/61\CC\01(\1F4\CC\01\15\035\06\0F\CC\01\DC\04\A7\00\0F\D1\05C\1F8\B9\01\05\01\82\01\1A6\9B\01\0F\C4\01\16/0 k\11\02K1547l\11=916\90\11\186\E94\097\00\0E%\00\0F\A3\11m\06)\14\1B4?\00\1F0\EB\01\18\1B0_\01\00\07\00\1F9!\0D\1A\182W\00\0F\FF\00r\0F\97\11\FFN/92Y\0F\04\0F8\02\FFb\1F1\91\11\97/938\02\FFy\1F2\8B\11\97/948\02\0B\04\8A\08\0F\9F\09\05\0F?\02\B7\1A9\AF\01\03\CD\00\04D\00\0C=\00\0F\90\0FQ\0F{\00\0B\0A\C7\01\1F7\85\11\13O2183\D4\09\01\0F\E7\01\E7\1F3\93\00\03\03{\00\046\00\0F\EF\01Q\0F\83\00\13\0A\F7\01\1E8\7F\11\0F\F7\01\19\0Fm\10g\0F\CD\013\09\0D\01*10\FD\00/1 \D8\0C\03\2221-\07\0F\0D\01\FF\04\169\19\00\1E8u\11\0F#\04\D3\0Fo\11w\0F\C7\01\17\1F8\C7\01\15\1F4\C7\01\DC\055\00\0Fj\11U\03\B4\01\00}\01*20\96\01\0F\BF\01\16\190\07\00&14(\00\1B8k\11<156G\11\06\13\00-259\00\0F&\00\00\0F\11#\93)73\81\00)12D\00\04c\00\1B0h\01\00\07\00/65\04\0D\0C\0Fd\14\02\0F\05\01\A8\0F\0A\0Dw\0F{\03\08\0Bh\02\0F\98\00a\190&\02\1F6B\0F\05\0F>\02\FFg\1F1\80\11\97/67>\02\FF\7F\1F2\86\11\97/68>\02\0B\04\A6\08\0F\B5\09\05\0FE\02\BD\1A9\B5\01*525\00\0B\F8\09\0F\9D\0FQ\0F{\00\0B\09\CD\01/71\8C\11\14?834\F5\09\01\0F\ED\01\ED\1F3\99\00\03\03\81\00\046\00\0F\F5\01Q\0F\83\00\13\0A\FD\01\1E2\92\11\0F\FD\01\19\0E\85\10\0F\D3\01\A1\0A\13\01\195\E9\00/1 \04\0D\04/84\12\01\FF\0E\169\19\00\1F9\11#\C4\0FN\01\13\0F\A2\11x\0F\CC\01\16\1F3\CC\01\07\0F\11#\C4\0F\CC\01\1A\04&\00\0F\A7\11V%75\82\01\1A5\9B\01\0F\C4\01\16\190\07\00&14(\00\1B9\A6\11L2208&\00\05\13\00-259\00\0F&\00\00\1F5\14#m)16\0E\0B\04\\\01\04\8B\01\04\83\01/00\FD\01\18\1B0q\01\02\EE\09\0F3\0D\19\184W\00\0F\0E\01\AC\0F<\0Dw\0F\8C\03\08\0Bz\02\0F\98\00a\190/\02\1F3z\0F\05\0FG\02\FFp\1F1\C1\11\97/54G\02\FF\88\1F2\CA\11\97/55G\02\0B\04\C9\08\0F\DE\09\05\0FN\02\C6\1F9\D3\11\A9/58\D3\11\13O3495\22\0A\01\0F\F6\01\F6\1F3\A2\00\03\03\8A\00\046\00\0F\FE\01Q\0F\83\00\13\0A\06\02\1E9\DC\11\0F\06\02\19\0F\CA\10g\0F\DC\01B\09\1C\01)62\F2\00/1 C\0D\03O3505\1B\01\FF\16\159\19\00.10\EE\11\0FN\04\E2\0F\F7\11w\0F\D5\01\15/49\D5\01\15\1F4\D5\01\EB\04&\00\0F\00\12V&62\8B\01\0A\A4\01\0F\CD\01\16\0A\C2\01\05\B4\11L3500\00\12-85\DA\11\05\13\00-259\00\0F&\00\01\04\A0 \15985\0B\19\00?159\1A\00\04O2318\1A\00\04?239\1A\00\04:891\1A\00\03]\00\0C\A2\02\196\D1\09\04sI)13\82\01\05\9A\01\03\A1\0B\1B0\06V\0F/\00\04\180\FB\12$17\16\01:628\9B\00\1B8\9B\00\195r\02\0FF\00\0D\1A0\BBf\0F\E1\00\04\1F3\E1\00\15\0F\E9\00!\0A/\00\03VI\05g\08\0F\F6\00\03/30\F6\00\02/97J\00\17\09.j\0FN\\\19\141:O\1F63\01\01\03\A1\04\06\A6\03\02o\04*99n\04)05\FB\03(80q\0E\04&\00\0B\DB\03\03\8E\01\06\E2\03\02\A2\04\043()80O\01\06c\00\1F2g\01\00\06^)\0F\A1\00\13\180\82\15\1B5\8D\01(2 q\01\04\B1\04\123B\01\0A\B6\85\0E\BFJ\05\A2N\03\C4\01\05\82\00(11\99\00\0B\0C\01\05\A0\00\0C\0D\01/15\B0\00\05\03h=\1F6\B5\00+/16\B6\00\04\1B0\98\00\195\B0\00\05\BF\00\1A0n\01\1F1\B6\00\10O8293\B5\00+,24\01_\197\F9\0D)82\8F\00+99\\\01\1A4\E4\00\0F\AE\00\0A?647\AE\00-\04\19\02\01S\00\0D\FB\01\0Aw\00+9 \D8\03\0Fv\00%*32v\00\0C_\03\0Fw\00\0D\1F3w\00$\146f\00\03/+\0C\FF\02\198\04\01/08`\08\01\09\9C\00\05\DE\07\07\8A\01\0F\9D\00$.40\8A\01\0F\91\04\17\0A\96\00\1F6\84\03\00\154\FE\07\02/\08\03q\05\00\CB\87\0A\0F\00.1 \E2\00\06cR\08H\00\1F69\00\00\06\0F\00\1F2H\00\02-32H\00/329\00\00\06\0F\00\1F3H\00\02.44H\00\1A89\00\1A4\0F\00\1F5H\00\02-57H\00\1B49\00\0B\E7\00\1A7H\00\1B3 \01\1A5.\00+10\10\00\1F4'\02,\1A8\14\05\0F\05\05\05\0A\11\02\0F\DF\04\00\156\F0\00\1C5\A3\00\0B\C9\01*13\F2\00\189v\0A\06rb\0F\CA\00\1E\04\80\00\1E7\93\00+85\83\00\1F2\93\00\03\195m\09\01\0E\01\0F\95\00\02\1F9\94\00\0B\00t\00\146\B9\00\1F0\07\00\08,2 h\09\1F6\1D\04\00\04\0AS\147)\01\150&\04\0C=Y\05#\00\151#\00/80#\00\04\142#\00?509#\00\04\153#\00\1F4F\00\05\154#\00\1F6F\00\05\145#\00/60F\00\05\156#\00\1F2F\00\05\157#\00\02\90\04\0F#\00\00\158#\00/97#\00\04\149#\00/72F\00\04%10#\00\02\17\17\0F#\00\00\05^\01?798#\00\04\142#\00\128)\0D\0F#\00\00\05^\01\06\CB\1F\0C#\00\05^\01?881#\00\04\145#\00\129\BA\00\0F#\00\00\156#\00/37#\00\04\157#\00\0F^\01\05%18#\00\0F^\01\05\05EV/70^\01\05%20#\00/61#\00\04\151#\00/92#\00\04\142#\00/13F\00\05\153#\00\0F\D2\00\05$24#\00\030\03\0F#\00\00\155#\00\02O\04\0F#\00\00\156#\00/78#\00\04\147#\00?321#\00\04\158#\00\02\8F\09\0F#\00\00\05^\01?389#\00\03$30#\00\124\81\06\0F#\00\00\151#\00\02MS\0F#\00\00\142#\00?535#\00\04\05^\01\1F5^\01\05\05\02\07?760F\00\05\155#\00\0Fk\03\05\05\C5\05/77\A6\04\05%37#\00\0F\A6\04\05%38#\00/77#\00\04\149#\00/82#\00\04%40#\00/64#\00\04\05^\01\1F9S\02\05%42#\00\0F\A4\01\05%43#\00\0FS\02\05#44#\00O8011#\00\04\155#\00\02\00\01\0F#\00\00\156#\00\0F\BE\05\05$47#\00\06$\08\0C#\00\158#\00\0F\BE\05\05%49#\00\0F\DF\02\05%50#\00\0F\DF\02\05$51#\00\03\02\04\0F#\00\00\152#\00/57#\00\04\153#\00\0F\BE\05\05\06W\1F\1F3\99\02\05%55#\00\04\9Bh)38#\00\1B0,\\/25'\00\02\1B1'\00/70'\00\02\1A2'\00?503'\00\02\1B3'\00/48'\00\02\1B4'\00/94'\00\02\1A5'\00?623'\00\02\1B6'\00\1F5N\00\03\1B7'\00/95'\00\02\1A8'\00/73N\00\03\1B9'\00/69'\00\02+10(\00\1F9\AE\01\03)11(\00\04\C7\0A\0E(\00\0B\89\01\05\DF\07\0C(\00\0B\8A\01?852(\00\03\1B4(\00/81(\00\03\1A5(\00:914\91\00\03\FF\00\06\01\03;945\B3\00\1C1\FFP/96#\00\04\151\D8\09O8985$\00\04\05c\07?900$\00\05\05\EE\04?902$\00\05\05n\03O9051$\00\04%73$\00\1F7$\00\05\05\86HO9090$\00\03\06\BB\09?911$\00\05\05F\07\1D9\D0\04,11\D1\04\2291\0B\00\06\B1\01\04$\00)12\B2\01O9170)\00\03+24)\00/95)\00\03*43)\00\03+\09\0E)\00+62)\00/47)\00\03+81)\00/66)\00\03\06\FD\05\04*\00/87*\00\04\0C\F8\00/31*\00\05+40*\00/41*\00\04+59*\00/60*\00\04+78*\00\1F8*\00\05*97*\00/40*\00\04\03A\0B\07*\00\02\E9\0A\0E*\00\04\FA}\147)\00\1F3)\00\04+90)\00/55)\00\04\1B3)\00\0FE\02\05+94)\00/91)\00\04\1A5)\00?513)\00\04\1B7)\00/50)\00\04\1B8)\00/71)\00\04\0B\1F\01?593n\02\05\1A1*\00?615*\00\05\1B2*\00/36*\00\05\1B3*\00/58*\00\05\0B#\01\1F6D\02\06*06*\00/70*\00\06\0BN\01\1F7\BC\03\05;109*\00\02D\05\0F*\00\00+10*\00\0Fy\01\05\05\8A\1C\04*\00/80*\00\06\0B&\01/83*\00\06\0Br\02\1F8 \02\05\05\DF\10\05*\00\1F7*\00\06\0B&\01/89*\00\06\1A8*\00/91*\00\06\0BP\01\1F9\D2\00\06+21*\00/52*\00\05\1B2*\00\1F7*\00\06\0BP\01\1F9\F4\02\06)25*\00_10014+\00\05\1C6+\00/35+\00\05\1C7+\00/57+\00\05\1C9+\00/79+\00\04\02#\07\07+\00\06*\13\0D+\00\1C1+\00\02`\0E\0F+\00\01\1C3+\00/59+\00\05\1C4+\00\1F8+\00\06\1B5+\00\03\85\10\0F+\00\01\0C-\01\03s\0C\0F+\00\01\1C8+\00/77+\00\05\1B9+\00\123^\09\0F+\00\00,41+\00\0F\AD\02\06,42+\00\0F\D9\01\06,43+\00/84+\00\05\0C-\01?411+\00\05\0C\85\02?437+\00\05\1C7+\00/64+\00\05\0C-\01\0F\C9\06\06;150+\00\0F\CB\06\06<151+\00\0F'\06\06\02\1F\0E\08+\00\0F\85\02\06\02\B9\0A\08+\00/81+\00\05\0CX\01\1F6\04\02\06,58+\00/27\17\09\0C\06+\00\0F\84\05\06,60+\00/74+\00\05\0CZ\02?698+\00\05\0C-\01?722+\00\05\1C4+\00\0F\95\0A\05\05pm\06+\00\0F_\05\06,68+\00\0F`\05\06+69+\00\1F8U\08\06,71+\00\0F\DB\02\06,72+\00\0F\87\03\06,73+\00/78+\00\05\0C/\02?899+\00\05\0C\87\03/91+\00\06\1C7+\00/40+\00\05\1C9+\00/61+\00\04,80+\00/83+\00\05\1A1+\00O1006+\00\05\1C3+\00/29+\00\05\1C4+\00\0F\B8\07\06,85+\00/76+\00\05\0B-\01/11\DC\09\06,88+\00\0F\83\01\06,89+\00\0F#\0C\05<191+\00\0F\89\04\06,92+\00/85+\00\05\0CX\01\03\AB\18\0F+\00\01\0C-\01\05v%\0E+\00\1C6+\00\1F7w\0D\0D\05+\00?302+\00\05\1C9+\00/34+\00\03\03\14\1B\08+\00\0F\CA\0E\05\05\EC\17\06+\00\0F\\\03\05\05\09K\05+\00\1F4\BC\08\05\05\E9t\06+\00/63+\00\05\0CX\01\05\A2'\0E+\00\0C-\01\1F5\0C\06\05\05r9\06+\00\0F$\0F\05\03\06\1B\08+\00/94+\00\04+11+\00\066!\0D+\00\1C2+\00\0F\1A\11\05\03\FB\1A\08+\00\0F\BA\0C\05\03\E0\1A\08+\00\0F\E1\05\05\05\A7\0F\05+\00\1F7\E1\05\05\03\F0\1A\08+\00/38+\00\05\0C-\01\1F7\0A\05\05\05X\0A\06+\00\0F\BF\0C\05\05\BA\11\05+\00/82+\00\06\0C-\01\0Fi\0D\06\03\D2\1A\08+\00\0Fb\06\05\03\DA\1A\07+\00?907+\00\05\0C-\01\1F9=\09\05\03\C7\1A\08+\00\0Fe\0F\05\03\CF\1A\08+\00/81+\00\04\0CC\0C/20=\09\05\03\BC\1A\08+\00/26+\00\05\1C3+\00\04\B0\02\04\CA\02\04\A7\02\03\C4\0C\02%\00/72%\00\05\162%\00/87%\00\05\154%\00?136%\00\05\168%\00\0F\94\00\06&41%\00/78%\00\05\06o\00/20%\00\06\165%\00\1F2%\00\06\166%\00\1F4%\00\06\167%\00\1F6%\00\06\158%\00?393%\00\05\159%\00?421%\00\04&50%\00/46%\00\05\06(\01\05v\0C\0E%\00\162%\00/81%\00\05\153%\00\0D3!,13\CD\16_12530%\00\05\06r\01?556%\00\05\06M\01?579%\00\05\06M\01/60J\00\06\169%\00/57%\00\04&61%\00/90%\00\05\06\DE\00?723%\00\05\06\B9\00\05\E4\0B\0E%\00\06\B9\00?762%\00\05\06\B9\00?791%\00\04%70%\00\1F8\97\01\06&71%\00\1F4J\00\06\162%\00/73%\00\05\153%\00\06\E1w\0D%\00\06\E1\01?929%\00\05\166%\00/74%\00\03\06\E9\1D%13v\12\0E%\00\166%\00\1F7%\00\06\168%\00\0FM\01\05\06\D8\18%13\1B\0B\0D%\00\06x\03\153\CB\07\0E%\00\162%\00/40%\00\05\153%\00\1F3{\04\05\06\8E\1D_13261%\00\05\165%\00\0D\CE\08\1F3\92\1D\01&13\DD\1D/1 \11.\01\03\973\0B^7(97\DE)\05)'\03\81+\190<\17\0B%\00\03\1D\00\0B\CCt\169g!\09\07\00\0E \00\1A0\D8\00\1B5\AB\0C\141\D9\00?614*\00\04\1C8*\00/45*\00\04\1C9*\00/78*\00\03+90*\00\05\AA!\0D*\00\1C1*\00/42*\00\04\1C2*\00/81*\00\04\1B3*\00/81T\00\05\1C4*\00\0F\FC\00\05,95*\00/76*\00\04\1B6*\00\0DF\09\1F5n\1A\03-13]\16\05*\00\1C8*\00\0F\FC\00\06\0B\A4\01/40\FC\00\04\05\1F\0D\06*\00/43*\00\04\1C1*\00\1F7T\00\05\1B2*\00/10T\00\05\1C3*\00\1F3T\00\05\1C4*\00/65*\00\04\1C5*\00/96*\00\04\0B\A4\01\154\FA\09\0D*\00\1C7*\00\1F6T\00\05\1B8*\00\1F3\F8\01\04\05l\0D\06*\00\02\D2\05\0E*\00,10*\00\0F\F8\01\04\05\95\0D\05*\00?418*\00\04\0C\A4\01/45*\00\05\0C\A4\01?497*\00\04\0C\A4\01\05\E8\08\0D*\00\1C5*\00/69*\00\04\0C\A4\01\0D\1F\15\1B5\BA\0D\06*\00\1F3T\00\05\1C8*\00\0F\C6\03\04\05\E3\0D\05*\00\0F\C2\04\05\05\E2\0D\06*\00\0F\C2\04\04\05\E1\0D\06*\00/73*\00\04\0C\A4\01\1F8\FC\00\05,23*\00\0F\CA\02\05,24*\00\0F\CA\02\05+25*\00\05\B9&\0D*\00\1C6*\00\0Fz\01\05,27*\00\0F\CA\02\05*28*\00?502T\00\05\1C9*\00/64*\00\03+30*\00\05\92 \0D*\00\1C1*\00/60*\00\04\1C2*\00\1F9T\00\05\0B\A4\01\155b\01\0D*\00\1C4*\00\0F\1E\03\05+35*\00?311*\00\04\1C6*\00\1F4*\00\05\1B7\F0$/85)\00\04\1C8S\00\0F\C9\02\05+39*\00\1F4\11\06\05,40*\00/35*\00\04\1C1*\00\05*\12\1B9\B4\09\195;/\05\115\04\82\09\1F7\E12\00\03\87\00/40\FF\09\02\1F7\F7\09\12\1F5\F7\09\15\187\009\09\E43\0B\F0\09\06\19\00\1A0\C0\0A\05e\1D\05\AF3\03\9A\0A\1804\01\1F4\D5\00\12\192\D5\00\0C66\1E5x8\06\DD\00\0F-\00\03\0A\E5\00\1C2e5\0C\E4\00\04}5\0F\83\01\13\1F3\AE\00\12\1F4\B6\00\1F\045\00\0A\BE\00\1F4\BE\00;\182\BE\00\0C:\02\06{5\0F\B7\00\01\0F.\00\05\0A\B0\00\1F6n\01H\0F\B0\00\00\0Fo\01\10\0F6\00\0D\0A\C0\00\1F8p\01J\1A6\0F\00\0Fo\01\0B\0F-\00\02\09\AE\00/42n\01J\0F\81\00\02\1A5\B5\00\0F\BD\00\1A\1F5\C4\00\01\1F0\C4\00\0F\0F\D5\00N\0EB\02\0F\CE\00\10\0FA\02\02/44A\02B\1A9\CD\05\0F\FC>\09\04\8B\0D\0F-\00\04\0A\AE\00\1F6\AE\00H\04\F8\06\05y\03/08\AF\00\08\0F.\00\05\0A\B0\00\1F8\B0\00;\1F6\91\05\03\192\E7N\0DA\04\03\B9\07\06\08\02\1F2\D8\00\03\0FV\00*\09\F8\00/50\F8\00\0F\0F\09\01*\1F1\09\01\03\1F5\D9\00\12\1F5\B1\00\00\1F2Y\02I\0D\A0\00\1F4\A8\00\18\0F\B7\03\02/54\B0\00;\1A1\D4\02\1A1\A1\00\0A\A9\00\07FA\1F4\1F\00\00\1C7\1B?\0FR\019\0F\A2\00\05/99\8A\00\00\0E\A9\00\0A.\00\0A\B0\00\1F6R\01J\03\9AD\05V\03\0F\A9\00\04\0B'\00\09\A2\00/62R\01J\0B{\00/50\A9\00\19\0F*\07\01/60\EE\07A\0FR\01\07\189\C6R\0F\B8\00\14\0B6\00\0A\C0\00\0F\1B\07B\04\99\00\03\9D\07\05\F6\06\1F5\B7\00\02\01\F3\01\0F-\00\05\0A\AE\00\1F6\AE\00I\06\1C\0E\1958\01\06 \00\0F\B8\00\02\0F7\00\05\0A\BA\00\1F8\BA\00\0F\0F9\022\1A2\D7\07\05h\05\0FS\04\03\1C0\CB\00\0F7\00\0B\09\D3\00/70M\04C\192F\01+97\17\00\0A\08\00\1C0\C1\00\096\00\0A\B0\00\1F2\B0\00\15\0E\94\01\0F_\023\0A\D2\00+20\1F\00\0F\D2\00\11\046\00\0A\DA\00\0E\C5\03\0F\C9\00Q\05\F1\02\0Ft\09\0A\0D\CA\00\0C7\00\0A\CB\00\1F6\CB\00c+11\CC\03\0F\CB\00\13\0B7\00\0A\CB\00\1F8\CB\00K*49\A3C\192\F5\05)99\D2\03*97\83\05*15\8C\01\1B0\09\0B\0E\F8\00\0F]\007\09&\01.80\F0\12\0F\09\059/14R\07\0C\1A2cK\1E5\F8\00\0FF\00\0F\0A\D2\00\1F2\F8\01\1DI7316\E3\00-14\15\01\0F\F6\00\14\1A4\C7\01*12\A8\02\0B\9D\0E\04\08\00\04\EF\00/4 ?\00\12\0A\EF\00\1F4\EF\00\1D\0F\D1\01$\195t\02\05\94\00)037\08\0B\D2\00\03S\00\0F6\00\0C\0A\D1\00\1F6\92\02<\1A6\C1\00\05\1E\03\1F2F\05\04\1B5\AC\01\1F1\DA\00\04\0FO\00*\09\F3\00%91\F6A/26\F3\00\12\04t\16\05\8E\1E*11\08\00\03q\01\190\9E>\0F/\01\12\1F7/\01\04\1F3\8B\03\02/97.\01\03+14\17\01\172\90\00\0E>\01\0F^\00#\0AE\01\1F5E\01\16\0F\F1\05*/52!\01;\1B1\C4Q\1977\00\049\03\0FH\01J\0F\85\00\14\0Ao\01\1E4o\01\0Fy\04J.15a\03\0F\1A\01\19\0F7\00\03\09\D4\00\03D0\0E\D5\00\0F\C4\00&\1F4\C4\00\04\1B8x\01\0C \00\1F2\D4\00\04\0FG\00\1A\0B\DC\00\1F4 \03S\03\07\00\0F\F4\00\1F\0F\09\03,\0Fn\00A\0BB\01\1F3B\01S/51B\01\14\0F\82\04-\0FR\01\0C\0F~\00Q\0Bb\01\1F6U\04d*10\AD\00\0F%\04\01\0E\13\01\0F6\00\03\0A\D3\00.11\D3\00\0F\CF\08A\03}\00\06\09\08\194+\0D+97\C6\01\0F\DA\00\12\0FN\00\14\0B\F2\00\1F3\F2\00;(49\07\00\0E\F9\00\1F7\B3\00\0C\1F0y\02\02\05\10\00\1A0\EC\01\0E\1A\01\0Fo\00B\0B3\01\1F53\01\10\0Fx\0F2\188\C0\01*98\DC\00\09\CF\01\0C\9CT\0B-\00\0F\0E\B0\01\00\C1\00/85\C1\00\03\06\19\00\03\B1\00\04\C3\0A\05h\00\06K\01\190R\04\09?!\1F8\E6\03\1A\1E8\94\01\0F\85\0E\08(10\DB\00\06\98\00\0F?\00\0C\0B\0A\01\1C8\A1\01\0F\CA\01\0E\05\E8\0C\0FT\08\1B\198&\01\03\A6\01\04\A2\03\04\08\00\05\17\00\1E2\DB\00\0F=\00\15\0A\E1\00/20\E1\00\15\1F0\AC\01\22\1F8\A2\02\09.20\C7\00\0F5\00\0D\0B\BF\00\151\BEM/65\C0\00\02\06\19\00\03\C1\00\0F\AA\02\16\06\EAX\0F'\00\0A\0E\D1\02\0F\F4\01\1E\1B8]\04\1A5i\00/16\F6\01\04\0F?\00\1A\0B9\01\1E39\01\0Fq\162\0B-\01\03%\01\0F\BC\00\05\0B'\00\0A\A4\00,33\8B\00\0F\9C\02:\0B|\00\0E\02\14\0F\B1\00\10\0A5\00\0Bc\01\1F5\BF\00`\0C\06\05\0F\C0\00\13\0F\FD\04\03/27\C1\00;\1F2\C1\00\0A/50\B9\00\19\0F?\1C\01\03UE\0F\B1\00U/98\B1\00\19/98\B1\00\00/31#\02K\0FQ\04#\0FI\04\1A.35,\08\0F\C4\00*\1F4\C4\00\03/11\B2\09\03/00\CC\00\04\0F?\00\1A\0B\D4\00\1F7\D4\00<\1A5\D4\00\0F\DC\004/08\E4\00)\1F8\01\06<\1A2u\08/11\C4\00\02\0D#\18\0A\DB\00/9 >\00\0A\0A\C3\00,40\AA\00\0F\C2\00\05\1D9D]\0D\1C\18/28\E7\06\19(10\A3\08\04\0F\00\03\D5\00(75\D8\19\140#\00\1F 3\00\01\0B\D2\00\04h<O8327\D3\00\02O8337\CF\08\04/0 \07\02\02\1B9u\02\03\F8\0A\180\C0,\1B8\0E\01$83k1&20\13\00\1A7r\00\05\7F$*04\DA\00\174a\00\04\AFT\0FC\02\19/10*\01\01\04\04\02\0Fe\01 \0F?\02\04\1C2\FC\01\0Fl\01\07\0Fl\17\19\1A1a\0C\0B\17\01*98\16\1A\0F\9C\05\13\04\D9\00\0FU\00+\0B\00\01\1F4\00\01\0C\05\18\00\0F\FF\00)*12\84\00)97\E0\00\04\17\00\05/\00*14 \00\0E\08\01\0F^\000\0B\09\01\1F6\09\01\0F\0F\1C\0B1+12\A1\03\1A9\AD\00\03\B6\01\1B0\DBS\0B/\00\0A\BC\00/50\A1\0EM\1B7\98\01\191\E8\05/97r\02\03/00y\01\02\06\EC\00\172\CD\00\05\DFP\0F^\00,\0B\1B\01\1F2\D7\01L\194}\00\05\8D\00\03\BC\00\0C\8D\16\05\C8\01/02\D0\04\01\04\E4\00\0F\12\01\0C\0FV\00\05\0B\FB\00\1F4\FB\00&\0FG\1F\00\0F\BC\05\1A\1F4\B2\01\03\05\89\03\1E2\E6\00\0F/\00\07\0B\D6\00\0E\A8\03\0F.\0B1*14\A0\01.17m\02\0F\BB\00\08\0F7\00\0C\0B\C3\00\1F8\C3\00;\195\1C\11\1B96\03\1F8\01\08\02\1A1\D0\00\04\18\00\04\D8\00/5 L\00\1F\0A\E5\00\0F\C7)\17\1D9h\0B\0Fz\03\1B\0F\F7\00\11\0D\EF\00\1F5\EF\00\1F\0F\E7\00\03\1F2{\05M\195\E7\00\05%\03\03R\0E\04\96\00*98\1F\00\0Fk\03\04/5 F\00!\0B\F3\00\04nD\0F\0D\184/51\E2\00\03\03\94\00\0F\C3\00\0D/10\A4\00\01\0D\8B\00\0F\A3\00+\1F2\A3\00\0C\1F4\AB\00\19\04/\00\0A\B3\00/71\B3\00;\191\C3\01/97U\01\0A/6 &\00\01\0B\A1\00\1F5T\01C\0F\A1\00\04\1F4\A9\00\18\0FR\01\04\1F7\B1\00;\194\B1\00\04<\03\04\8B\00)09\08\00/97\C0\00\09\0F=\00\13\0B\CF\00\1F9\FA\06C\1B6\02\07\0A\C3\06/99\C8\00\04\0F6\00\11\0A\C1\00/81\C1\00\1D)1 \A26)98\87\03\180\B7\0E&72#l\09f\05\1E1k\00\0F\86\05\02\1B2l\00\1B9\DA\07\08t\00\04\82\0C\05NG\0D\AB\0F\0Bo\00\06 \00\0Fo\00\04\04`\00\0C,\04\0Bp\00\1F5p\007\196\81\02\0Fo\00\03\1F7o\00L\1F5v\00\02\1F9v\00\1E\0F\88\00\0F+9 J\0B\195\E4\07\0A\82\00\06\C0K\0F\F9\00'/9 @\02\10/62h\00E\0A\12\05\04p\00/71p\00-\0F\133\06\0Ai\00/95i\00/(2 3\02\0F\FC\03\02\04o\00\06\87\09\0Fp\00/\04\13\02\06R\01\191\EB\04\0Cz\00\0F\EA\007\05\06\06\04r\00\09>\0C\06r\00\1F8r\00\1E\0F\84\00\18*14)\03\0F\E7\01\0B\0F\8B\00'\0E[\0E,2 \DB\16\1F0\8B\00\18\03\99\02\09l\00\0F\8C\00\15\0F\0D\06\06\06\8C\00\05\93\01\1F3|\00\02\1F4|\00\1E\0Fj\00\15\0F]\1C\01\06x\00\1F7x\00//9 u\02\02\0B\F1\07\04r\00/10r\00\1E\04\12\00I9312\84\00-14,\00\05\97\00\0F\F9\12\0B,10\FE\17\06C\00\0F\8F\00\15\0F\13\01\07\0Fc\0C\0B+10\E87\06I\00\0E{\00\0Fi\00#\0F\BD\05\04\1F3q\007*13\EE\03/16^\01\02\0Fr\000/6 \F9\07\01\0Ai\00/66h\00E\0FJ\01\04\1F5p\00%.10:\00\0Ft\19\1C\047G\0As\01\192\CB\15\07i\00\06,\0B\0F\A1\06\05\05\F3\00\1F6`\00\10\02oR\069\01\04\A1\09\0F\EF\0A\04\0F@\01\03/85\B0\01-\0Fw\00\14\0F\85\04\03-85\1C\01\0F~\00\02\05\1F\00\0F}\00%\1F8}\00\02\0FER%/13\EB\05\05/10t$\03\1F0X\02\19\0E\CC\1B\0E\F2\00\06\E3\00\0Fq\04\11/87\E7\015\0Fx\00\0D\0F\E8\01\04\1F7\E8\013\0F~\00\00\0F\E9\01\11\1F7\E9\01%\0E\80\00\1F6\9C\04\17/89u\017\0Fw\00\0A\0Ft\01\04\1F9t\015\0E}\00\0Fs\01\0F\1F9s\01.)9 $\03\0F\E0\06\0B/52\7F\0D5\0Fp\00\04\0Ed\01\0Ax\00\0Fe\01%\0Fv\00\0D\1F8v\00\03\0F^\015\06\92\04\02\8A\0B\05s\1E\0Ci\03\03\D1\04\04\FE\01\0B\91\00/96\7F\01\1E\0E\12\00\0F\A3\00<\0F\B2\01\04/96\B2\01\1C\0D\11\00\0F\A8\00>\1F8\A8\00\03\0F\E4\01\1E\0E\12\00\0B\AB\00\06\F3\0F\04h\02\0F$\01\02\03[R\09\9D\01\0E|\00\0F\BD\01\0A\0Fj\00\06\0Fr\00\0D\05f\01\0Eq\00\0F\85\01\09\0Fp\00\08\1F8p\00\0A\06,\01\0Eq\00\0FL\01#/99q\00\02\1F9S\01F)99\0F\00\0Ey\00\0FZ\01C/99a\01\0A\1F9a\017\0B.\10\0Fk\14\02\03Wo\0Fa\013\0Fq\00\03\0Ea\01\0Ay\00\0Fa\01.\0Ew\00\0Fa\01\07\06w\00\0Fa\01?\04\BE\12/49y\00\01/19i\01F\0By\00\0Fq\01\04/19q\01D\0D\7F\00\1F8\7F\00\03\0Fy\01&\04(\00\06\00\0E\1B0\1B\06\1F9r\00\00\1A7\F2U\0Fw\01\17\0E\12\00\0F\89\00\1D\0E\82\01\0E\91\00\0F\87\01\16\0D\11\00\0F\8E\00\1F\1F8\8E\00\09\0F\96\01\1D\0E\12\00\0F\91\00\07\189\03\0B\0B\80\00\199\80\00\06m\01\0E\80\00\0A\8D\01\0F\12\00\0B\0F\92\00\1A\0E\A8\01\0F\9A\00\00\05x\01\0E\99\00\09\97\01\0F\11\00\09\0F\96\00\1C\1F8\96\00\0F\06~\01\0E\97\00\0A\9E\01\0F\12\00\0B\0F\9A\00\1B/20\97\13\06\05\9A\00\06\86\01\0E\9A\00\0A\A6\01\0E\12\00\0F\88\00\1C\0E\C0\01\0F\90\00\00\05\7F\01\0E\8F\00\09\9E\01\0D\11\00\0F\8D\00\1E\1F8\8D\00\0F\06s\01\0E\8E\00\0A\93\01\0E\12\00\0F\90\00\0D\05\F8\03/10\89\00\01\196\89\00\06t\01\0E\89\00\0A\94\01\0E\12\00\0F\89\00\1D\0E\A7\01\0F\91\00\00\05w\01\0E\90\00\09\96\01\0D\11\00\0F\8E\00\1F\1F8\8E\00\0F\06v\01\0E\8F\00\0A\96\01\0E\12\00\0D8\07\03\93\12\06\DA\0C\038\07\05\FA\0C\1F6\91\00\00\06\DAj\06y\01\0E\8C\00\0A\99\01\0E\12\00\0F\8C\00%\0E\B3\01\0A\94\00\05~\01\0E\93\00\09\9D\01\0D\11\00\0F\91\00'\1F8\91\00\0A\06\7F\01\0E\92\00\0A\9F\01\0E\12\00\0DB\02)5 t\00\05\8C\00\03\83\0E\1F9\BB\0B\02\04\C9\00\0CR\1B\0E\90\00\0E\A3\01\0F~\00 \0E\A2\01\0F\86\00 \0D\97\01\0F\85\00\1E\0F\0B\010\0E\89\01\05\1D\02*8 v\00\1B7\DA\03\09\89\05\0B\85\00-30k\01\0F\8B\01\07\0F\80\001\0F\92\01\04,30m\01\0F\87\00\03\0D\8C\01\0F\86\00%\1F8\86\00\0A\06n\01\0F\8E\01\15\1D1\88\00\1B8\DA\0E\0Ba\05/16\82\00\00)60\15\02\0Dp5\0F\95\01\00\0F\87\003\0E\97\01\0F\8F\00 \0D\9D\01\0F\8E\00'\1F8\8E\00\12\0F\A4\01=\0BC\19\05\97\00/00\8F\1C\06\0F\AC\01I\0F\8F\00\0C\0F\B4\01\04\1F6\B4\01L\0F\96\00\0E\1F8\96\00/\0E\BC\01\0D\E8\03)11\F0\03\04X\0F\1F1\14\01\01\03\A2o\09\86\01\0F\A6\01\07\0Fy\00*/10\81\00\0B\05p\01\0F\8F\01\06\0F\7F\00,\1F8\7F\00\0A\06Y\01\0Fy\015/50q\00\01/33q\01F/50i\01\02\0F\09@\0D\0Fi\01-\05w\00\1F8w\00\03\0Fa\01F\1F9q\00\02/25a\01F/98\CA\02\02\0F\AB@\0D\0Fa\01-\05w\00\0F\F0\00\04\0Fa\01&\1D1y\00\0F~\06\0B\0Az\00\02\873\06\BA\04\0C\E7=\0Fo\01\00\0F\7F\00+\0Ex\01\0F\87\00 \0D~\01\0F\86\00\1F\1F8\86\00\13\0F\8C\014\0FV\06\0C\0FU%\01\0F\94\01A\0F\87\00\0C\0F\9C\01\03/64\9C\01D\0F\8E\00\0E\1F8\8E\00/\0E\A4\01\04\A9\03\04Q\00\1A9~\00\0B4\0B-01f\01\1F1#=\06\0Fi\00\1A\0Em\01\0Aq\00\05H\01\0Fp\006\1F8p\00\0A\06*\01\0Fq\00\15\1B1q\00\05\DD%\197\E8\01*98\DE\0F\0F\93\03\04\0A\98\00\02\95A\05\E7\01\0F~\01\0F\1F2\9D\00J\0E\AD\01\0E\A5\00\0F\B2\01\0D\05\1F\00\0F\A3\00E\1F8\A3\00\09\0F\E5\01\13\06 \00\0F\A5\00\0D*12\7F\00)97)\01\06\96\00\03/\00/14\9E\00\01\0F\E5\01$\0E\12\00\0F\AF\00D\04 \00\0E\B7\00\0F\F7\01\1F\0D\11\00\0F\B4\00F\0F\09\02\02\0F\08\02$\0E\12\00\0F\B7\00\1D\06\08\00\04\F0\05\199\CF\00\05\B7\00\1F0\93\07\01\09\B7\00\06\F0\01\0E\B7\00\0A\10\02\0F\B7\00^\0E*\02\0E\BF\00\05\FA\01\0E\BE\00\09\19\02\0F\BD\00`\1F8\BD\00\0E\06\8D\00\0E\BE\00\0A\AD\00\0F\BF\00\10\1B4\BF\00\0C\C0\12\0B\E3\04*00/\00/14\142\02\0F,\02,\06\12\00\0F\B0\00D\0F$\02\03/16%\02*\05\11\00\0F\B5\00F\1F8\B5\00\0F\06\EB\01\0E\B6\00\0A\0B\02\0E\12\00\0F\B8\00\15\0F\F1A\0B\04\99\00\04t\8F\1C1\D4\01\0E\99\00\0A\F4\01\0F\12\00\07\0E\A63\0F\AB\00%\0E%\04\0F\B3\00\00\05\D1\01\0E\B2\00\09\F0\01\0E\11\00\0F\B0\00@\1F8\B0\00\0F\06\CA\01\0E\B1\00\0A\EA\01\0E\12\00\0F\B3\00\19\0B\AF\02/16\9B\00\00\190\9A\00\06\CB\01\0E\9A\00\0A\EB\01\0Fv\00\1D\0E\C9\01\0E~\00\05\98\01\0E}\00\09\B7\01\0F|\00\1F\1F8|\00\0E\06b\01\0E}\00\0A\82\01\0F~\00\06+11\13\02\0A'\04\0A~\00/42y\01=\0F\7F\00\0C\0F\81\01\03/42\82\01;\0F\85\00\0E\1F8\85\00\02\0F\8B\015\03\18\00\1B9\B8\05\198\17\0C)08\9C\00\0B\F6\09\1F4\98\01$,9 `\0F\0F\9E\002\0F\B7\01\03/34\B7\01\1C\0F\A4\00L\1F8\A4\00\02\0F\D6\01$\0F\A6\005/10\BF\0F\02\0F\E0\01,\06\99\1D\0F\96\00*\0E\D8\01\0F\9E\00\00\0F\D8\01\0F\0F\9C\00D\1F8\9C\00\02\0F\D0\01,\0E\9E\00\04\F8\03\04\CB\06\05\FB\15\1A7m\07\190\B6\00\0C\A5\1D/5 \CC\01\17\0F\80\001\0E\BB\01\0A\88\00\0F\B6\01\0F\0F\86\003\1F8\86\00\04\0F\A0\01\1D\0D,\02*6 \D0\0A\0B\CD\05/99y\00\00\02\09O\05\1E\02\0F\8C\01\11\0F~\00*\0E\85\01\0E\86\00\0F\8A\01\10\0F\84\00,\1F8\84\00\09\0F\88\01$'10\A0\90\04;\00,00\E3\08\1F8\B79\07\188'B\07\8F\A4\0D`\00\06\9E,\05k\16/00h\00\1E*70\9C\B3\1A5\F1\0C\1A8\F2\1D\03\07\00\05\C1\A0\06\\\01\1D1c\00\09\05\06\04H\00\198i\A9/352T\00\0F\B6\0B\00\0FT\00\0B\1F9T\00\01\198\1C\02\03\D6\00\04\AA6+98\B6\00\1F4!\01\08\04_\00\09\87\01\09\07\00*41_\00\04H\00\0D\AF\10/05h\00\07&83h\00\09p\05\0Al\00%9 \00\02/72[?\03\00\1B\00\1A7\CF\02\0F\A2\00\05/95\11\0D\03/05\B6\D1\01/95\D7\00 \1F8\D7\00,/42]\01\04/11L\04\00\03n\00\03\1C\03\0F\CC\04\12/37p\00\1C\1F5p\00\01.4 \E1\00\0Fp\004\1F8p\00\01,7 \0F\03\0Fp\00\15\1C1tn\0A\D6\01)97\14\03\05\03\02\1E4\86\00\02^8\05\80I%12\EEA\0F\DD\01\05?313\13\00\12\1F9\13\00\11*50\D9\00\1D7\08\03\05\DC\C0\134\08\00\07?\05;333_\09\05\C8\02\03\BE\CB\05\12\01\195\99\01\170f\00$8 b\00+13^\A5\04o\06\0F\D67\0F\191\BD\05\0F~b\1A)7 \16\02\07\1D\01\04F\03\05\09L\02\C5\00+99]\02\0Ar\22\0C\FD\01\195c\03\04\84\00\04\17\00.16\14\02&40\14\02\0A\8C\01\05\94\04\1D9+\03\0F!\02\13\0C\C1\02)9 \B4\00/089\01\02.99\A5\00\02\1B(\05\95\04\0F\B9\02\00\0F\93\02\19\0B\98\00\0F\EF\07\06\09\83\00\04P\9F\1E3\F4\98\0E\83\00\0E-\01\09\12\00\03p\00)50\FD\04\0F\A1\05\14\05\F9*\1F2~\00\00\1F1s\00\0C\05\ED\02\05\83.\03:\02\06\D6\02\1E1s\00\02CM\0Fr\00\03-9 \94\01\0D`\01)3 \\\00\04\D7\00\06\10\00\1F0x\01\07\03>%\02}\00\01h\00\155\91-\0FA\05\13\05\D4\02\06\1A]\06\9B\00\198\94\02\05h\08\1F5X\08\00\193\01\02\0F\C8\05\0D\06 \00\1F0t\00\04\0E\FE\09\0F\FF\00\00,86w\02\02\F4@\0Fw\00\09\0F\89\00\16\1F9\91\03&\04\A4\07\1D2\FD\01\0F\97\00\03\0E~\03\0E\86\00\0B~\00\0B\1D\02\09\7F\00\038Y\05\17\01\06\E8\02\0F\14\02\07\0F\91\00&*15\B6\02\03\17\01\05\B4\1A\1F94\02\07\06\A9\93\0Dv\00\0F\A9\00\03O1264\BC\00 \07\B7\05<646\E1\06/9 \1A\08\01\0F;\06\04\03\E6\00\180]\0C\1F4\22\01\06\0F\1A\01\11\0A\12\01/57\BA\01\1A\0F\11\01%\03\22\00\07\F9\0C\1B5\A4\00\1F4\F0\00\00\0B\CC\0D\1F3\99\00\0A\05\F3\02\0E\87\00\0F\09\09\1B-50\AD\00\0F\D7\0B>\05\ED\AE\1F2\D4\00\00\1A1\A2\00\06\94\01\0CR\19\02h\02\07<\02\190\CA\04\0Ar\00\05!\0B\0F\EA\01\0B\1C4]\00\04\D8\00\04e\00\1B0\19\04/11^\02\06/38\97\04\00\0F\C5\01&\0DL\02*5 3\03\0F\06\01\12\169\06\01\0F\87\00\05\05a\D6\0Bc\0C\07r\00\1F6\B6\02\02\05\CE\02\0F{\00\02/17T\0D\1E\06\06\01?836c\04\05\05\81\07\0F\A8\00 \1F8\A8\00\00-76\AB\06\0F\A8\00 \0E\BE\02\0FN\01&/17\AE\00\08\05\BB\7F\08\93\0C\0F\AF\009\1C1\AF\00\04Z%*15\AF\00\04\00\04\07p\11\06\A7\00\166\C3\04\09f\00\0F\AB\00\0D\0D\86\00\0B>\06/15\DA\01\04\02 \00\0B5\07\0B\94\00\198\95\00\07k\03\0F\96\00\03\07k\02\06\13\00?964\0F\07\188969Q\17\0A#\07\0F\E5\00\00\0F\DD\00\11\0B\D5\00\1F1j\01\1A\0F\D4\00\02\05\92\00\03\C1\00\03\B2\02\0B\0C\0E\0D\8A\0E(17\1F\00*99\0F\06'20\AE\00*12\16\08\03U\9C\0FC\A1\0C\06\7F\0F\0FC\A1\08/14C\A1\10\06\7F\01\0F\1E\A1\08/31\1E\A1\10/32\F9\A0\10.33\F9\A0\0E%\00\1F5h\A1\10\02\B0\03\0F\1A\A1\12\03\E1\D3\1A5\96\01\0F\BC\01)\1A5\DF\05\0C*\0C\1F6\F2\01\0A\0F\D7\0E\0B)13<\9C\0B\09\02\0F\BB\02\02\0684\0E\12\00\190\07\00\088\02\04Y\04\07\F8\0C\1F8\D6\00\0A\1A9b\04\09n\03\02}\05\0F\FE\16\0D\1F7\FE\16$\05\CE\00\188\CC\86\0C\AA\16\0F\FE\16\1B\0DT\00\1F9\FE\16\0E\04\10\0A\04_\02\0C\E7\01\1F0!\01\08\05\CF\12\0F\E8\09!/41\AB\01\04(97\00\05\0F\DD\05\02\04t\01\1C3\F8\00\0F|\00\03\06 \00\0F|\00\0D\0F'\02\05\09~\00\04o\A3\1F3\CB\027\047\08\0F\E8\15\0D/10\90\00\00\03\1CW\09X\00\0Fz\07\07\0F\AF\08,\0F\89\00\09\03\E5\A2\0F\89\00\1A\0F]\09Z\0F\B6\00\04\145q\00/37\B5\00q\0F\B4\18\02\05\9Bw\0E\FA\1C\0F\A5\00\11\0F\93\00-\0A\1F\03\0B\9B\00.6 \11\1D\0F\9C\00%*12n\C3/38\AF\AD\08\185\89\9E\0F\AE\AD\04\185{\16\0F\AA\AC\04\185O\1D\0F\D1\AD\04\1855\1B\0F\80\AB\04\1B5\C5\16\0E\CA\08\05$\00\05\8Dk\0F\D1\AE\01\1B5\DEa\08\8A\13\0C$\00\137$\00O5967#\00\04\1F8\83\AE\08\1B5da\1E1\82\AE\04$\00/60\81\AE\08\04$\00\1F1\80\AE\08\185\F2\10\0F\7F\AE\04\185\86\D1\00$\00\0F\06\AB\00\185\FF4\0FX\AE\04\185\C4\FD\0FW\AE\04\185\C0\1E\0FV\AE\04\1B5\A8\F9\0FU\AE\01\185\C0\1E\0FT\AE\04\185R\1F\0FS\AE\04\1B5\95a\0FR\AE\01\1B5j\91\0FQ\AE\01\1B5\B4\90\0FP\AE\01\1B5\FAZ\0F*\AE\01\185n\07\0F)\AE\04\04$\00\1F7(\AE\08\1B5\AE\8F\0F'\AE\01\185\B2\08\0F&\AE\04\185\98\09\0F%\AE\04\185W\C5\0F$\AE\04\185U\1F\0F#\AE\04\1B5{\8D\07\22\AE\04\C6\1A\0FGg\0A\04\C6\08\1A9I\05\03\CE\08\055\1B\09\EC\05\04\FE\07\0F5\00\0C\09\14\0A/59\18\06\04\0D\18\00\1F0\D4h\18\0F\BE\00\0D\194\91\00\0F\C6\00\1C\1F4\CE\00\07/61\D3hA+97\82\00\1A5\1F\0D/02\C7\00\03\0F6\00\12\0A\C0\00\1F3\8E\01H\0F\8A\00\00\0F\8F\01\18\0F>\00\15\0A\D0\00\1F5\D0\00J\1A6\0F\00\1E0\F6?\0E\08\00\1B0\D6\00\0FD\00\11\0A\D4\00\1F8\D4\00\0F\0Fu\029\0F\A1\00\02\04\9A\00\0A\A2\00\0E\D6\00\0F5\00\02\0A\CF\00\1F9\A3\01_\0Er\02\0F\C6\00\1A\1F4\CE\00\07/71\01\04B\1A9S\0E\0B\E6\0A/02\91\00\00\05B \0F5\00\0B\0A\BE\00\1F3\BE\00H\06\F5\0F\03\C1\03)08\8A\00\0F\BF\00\03\0F6\00\0D\0A\C0\00\1F5\C0\00;\1F7\09\06\03\1F2k\16\03\1F0\BE\12\04/02\E8\00\0B\0F^\002\0A\08\01\1F9\08\01\0F\0F\EBp0\0D\19\01\195\93\00\0A\9B\00\0E\E9\00\1F5\C1\00\07/83\89\02I\0D\82\00\1F4\B8\00\22\1F4\C0\00\01\0F\EAa\0C\0F\C0\00*\05\0C\03\1A1{\00)99\0F\00\0A\92\00\061#\0F6\00\0B\09\C0\00/96\1BsB\0F\C0\00\04\0F\B9\00\1C\0F\B2\00\02\03.\00\0Fs\01F)20\9F\03/50\93\00\08\06\BA\00\0F6\00\0B\0B\C1\00\1F8t\01J\0B\8B\00/10\BA\00\1A\0F\B3\00\04\1F9\BC\07A\0F\B3\00\07\199IJ/02\C2\00\1B\0E>\00\0D\D1\00/11E\02C\182I\08+98I\04\1F2\C8\00\02/2 5\00\10\0B\BF\00\1F2\BF\00I\0D]\16\03R\01\06 \00\1F2\9C\00\00\06>'\0F?\00\0C\0E+\18\0F\CB\00\13\0Fl\02,\1A2W\08\05\E6\05\1F1|\04\10\07\DC\00\0F?\00\13\0A\E4\00/24\F2\03C\192`\01+97\17\00\0F\08\00\03\1C0\D2\00\0F>\00\02\0B\C1\00\1F8\C1\00\15\0E\B6\01\0F\92\023\0A\A5\00+20\1F\00\1F2\BD\00\00\0E\E3\00\0F>\00\03\0A\EB\00\0F\90\B2\00\0F\DA\00Q\05-\03\0FM\0A\12\0D\DB\00\0E?\00\0F\DC\00\02\1F4\DC\00c+11\19\04\1F2\DC\00\1A\0E?\00\0F\DC\00\01\1F6H\04[/14w\07\1A\0F(\83\03\05\EB\00\0FN\00\14\0B\F3\00\1E8\F3\00\0Ff@\0F\0F\F4\00!\1B4\AB\0C\1A2\99\01\0F\A0\0E\04\0A\B6\00\0F3Z\18\0E\ED\00\0F/\8B!\0F\E0\01$\1F5\E9\05\03)03\9F\07/02\E3\00\02/5 >\00\19\0B\E2\00\1D2\9B\1B\0F\E3\00\05\0F\D2\00\1B\1B8?\03\0F\B2\02\13\0C\AB\02\03{\00\0FG\00\15\0A\DC\00/55\BE\01\1E\0D\A0\1C\0F\ED\00\0B\0B\B7\01\04q\01\1A7K\04\0B\0A\06\1F0\B4\00\01\07\EB\00\0FE\00\19\0B\F1\00\1C7\D9\00\0F\CC\01+\0C\DF\00\1B88\04\0B\FF\05\0F\92\03\04\1C0\E1\00\0FG\00\1B\0A\E3\00.66E\1F\0FN\9C2\1F8\9D\00\03\0C,\1F+10\91\02\1F2\EC\00\04\0FO\00*\0B\F4\00\1E8\F4\00\0F\A4\039)11z\02\0ADy\04\93\00\0A\9B\00\06\E2\00\0F=\00\12\0A\D0\00,73\B7\00\0F\CF\00P\0Er\04\0F\D0\00\19\0Fi\04\04\0F\EC\83D\1F3\D1\00\0A/50\C9\00!\0F\1E\10\0A/77\C1\00Y/98\C1\00!\0F\C7\06\0A/81\ED\0CC\0F\C1\00\03\04\84\00\0A\8C\00\0F\BA\00\06\0F\B3\00\04\1F2\06\03K\0F\A5\05+\0F?\00\14\0B\D3\00\1E7?.\0F\81\069/14\95\052\0FG\00\1C\0B\E4\00\1F9\E4\00<\1A3\E8\07/11\CC\00\0A\0D\DB\0B\0A\E3\00/9 F\00\12\0A\D3\00\1D9\BA\00\0F\D2\00\05\0E\15\96\0F\E4\00\12\0B\15\06\1A1\CD\09)97\97\01*98\B1\0B\0F\C1\02\1B\02\F0*\0F]\005\09(\01\0ErW\0F(\01\06\0F\16\010*12\93\00)97\9A\00\06\AA\00\03/\00*14 \00/02\CA\00\00\0E\0FR\0Ff\00+\0B \01\1F5 \01\0F\0F\96\051*12\E5\02)19\95\00\0C\08\00\02\A5\00\03\BF\14\0E7\00\0F\CC\00\03/31\CC\00K\0C\FD\01\1A4h\01\0C\EE\0B\0B\A7\02/00\97\01\0A\0F\02\01\05/4 f\009\0B1\01\1F9\FD\01L\1B5\85\00\0A\C4\00\0F\99P\07\1F2\1B\11\18\0F\22\01\05\0F^\00\0D\0A\0B\01/45\0B\01&\0F4\11\06/52E\06\11/14\CA\01\03)16\AF\00\0A\B7\00\07\F6\00\0F7\00\0B\09\E6\00\03\98\00\1F1\EA\00\14\0F\C4\08\1A*14f\01/17\99\02\04\1F2\CF\00\04\0F?\00\1A\0B\0B\0B/0 \D3\00\1B/52`\0E\11\03Z\19\1B9r\03\198\96\06+08\A9\00\1B2\08\00\198\E8\00\03\A0,\0FT\00\22\09\F5\00\04\D5A\1F1\FA\00\14\0E\03\09\0F\0C\01\13\1F5\0C\01\18\0F\04\01\06\1F5\04\01\1F\0F\FC\00\09\05\9E0\0F+\12-/52\BC\06\12\1F5k\03\03/02\A3\00\00\05\DF\00\0E/\00\0F\CA\00\00\1F5\C6\01\1C\0FZ\04\1B\0F\B8\00\05\194\91\00\0A\99\00\0E\C0\00\0F7\00\04\0A\C8\00\1F4\C8\00A\192\D3\04+97\90\00\1F2\90\00\00\05\10M\0F.\00\04\09\B6\00/60~\01I\0F\B6\00\04\1F4\BE\00\22\0F|\01\08/62\C6\00A\195\C6\00\04\17\0F\04\98\00)09\08\00)97\9F\00\0A\A7\00\05\D5\00\0FE\00\1B\0A\E4\00\1F4\E4\00A\1A4\E4\00/14|\06\02)99\98\00\0A\A0\00\06\DD\00\0F>\00\13\0A\D6\00\1F6\D6\00\22\0C\D5\00\195^\01\04y\00\04\89\00+95B\07\1A1h\05\197>\00\190\B3F+16q1I6436\8C\00\02\B9\07\01G\D1<531\C08$55\9A2\04\F30\04\E5\01(16\8A\01\06\F7\07\1F0\8E\00\00\03\FC\01\04k3\1A5\BD8/08Z\00'\03;\00\1A4\06V\1F6Z\00\0B\1B0\96\01\04>\00\1F5\9B8\01\1E0R\00\0E\8E\00\0FS\00\06\1F6S\00\01\184\80\01\F0\100 \0A\09}\0A.section\09.debug_loc\09{\09}\0A\00\00\00", section ".nv_fatbin", align 8
@__cuda_fatbin_wrapper = internal constant { i32, i32, ptr, ptr } { i32 1180844977, i32 1, ptr @1, ptr null }, section ".nvFatBinSegment", align 8
@__cuda_gpubin_handle = internal global ptr null, align 8
@llvm.global_ctors = appending global [1 x { i32, ptr, ptr }] [{ i32, ptr, ptr } { i32 65535, ptr @__cuda_module_ctor, ptr null }]

; Function Attrs: mustprogress noinline norecurse optnone uwtable
define dso_local void @_Z21__device_stub__euclidP7latLongPfiff(ptr noundef %0, ptr noundef %1, i32 noundef %2, float noundef %3, float noundef %4) #0 !dbg !2118 {
  %6 = alloca ptr, align 8
  %7 = alloca ptr, align 8
  %8 = alloca i32, align 4
  %9 = alloca float, align 4
  %10 = alloca float, align 4
  %11 = alloca %struct.dim3, align 8
  %12 = alloca %struct.dim3, align 8
  %13 = alloca i64, align 8
  %14 = alloca ptr, align 8
  %15 = alloca { i64, i32 }, align 8
  %16 = alloca { i64, i32 }, align 8
  store ptr %0, ptr %6, align 8
  call void @llvm.dbg.declare(metadata ptr %6, metadata !2123, metadata !DIExpression()), !dbg !2124
  store ptr %1, ptr %7, align 8
  call void @llvm.dbg.declare(metadata ptr %7, metadata !2125, metadata !DIExpression()), !dbg !2126
  store i32 %2, ptr %8, align 4
  call void @llvm.dbg.declare(metadata ptr %8, metadata !2127, metadata !DIExpression()), !dbg !2128
  store float %3, ptr %9, align 4
  call void @llvm.dbg.declare(metadata ptr %9, metadata !2129, metadata !DIExpression()), !dbg !2130
  store float %4, ptr %10, align 4
  call void @llvm.dbg.declare(metadata ptr %10, metadata !2131, metadata !DIExpression()), !dbg !2132
  %17 = alloca ptr, i64 5, align 16, !dbg !2133
  %18 = getelementptr ptr, ptr %17, i32 0, !dbg !2133
  store ptr %6, ptr %18, align 8, !dbg !2133
  %19 = getelementptr ptr, ptr %17, i32 1, !dbg !2133
  store ptr %7, ptr %19, align 8, !dbg !2133
  %20 = getelementptr ptr, ptr %17, i32 2, !dbg !2133
  store ptr %8, ptr %20, align 8, !dbg !2133
  %21 = getelementptr ptr, ptr %17, i32 3, !dbg !2133
  store ptr %9, ptr %21, align 8, !dbg !2133
  %22 = getelementptr ptr, ptr %17, i32 4, !dbg !2133
  store ptr %10, ptr %22, align 8, !dbg !2133
  %23 = call i32 @__cudaPopCallConfiguration(ptr %11, ptr %12, ptr %13, ptr %14), !dbg !2133
  %24 = load i64, ptr %13, align 8, !dbg !2133
  %25 = load ptr, ptr %14, align 8, !dbg !2133
  call void @llvm.memcpy.p0.p0.i64(ptr align 8 %15, ptr align 8 %11, i64 12, i1 false), !dbg !2133
  %26 = getelementptr inbounds { i64, i32 }, ptr %15, i32 0, i32 0, !dbg !2133
  %27 = load i64, ptr %26, align 8, !dbg !2133
  %28 = getelementptr inbounds { i64, i32 }, ptr %15, i32 0, i32 1, !dbg !2133
  %29 = load i32, ptr %28, align 8, !dbg !2133
  call void @llvm.memcpy.p0.p0.i64(ptr align 8 %16, ptr align 8 %12, i64 12, i1 false), !dbg !2133
  %30 = getelementptr inbounds { i64, i32 }, ptr %16, i32 0, i32 0, !dbg !2133
  %31 = load i64, ptr %30, align 8, !dbg !2133
  %32 = getelementptr inbounds { i64, i32 }, ptr %16, i32 0, i32 1, !dbg !2133
  %33 = load i32, ptr %32, align 8, !dbg !2133
  %34 = call noundef i32 @cudaLaunchKernel(ptr noundef @_Z21__device_stub__euclidP7latLongPfiff, i64 %27, i32 %29, i64 %31, i32 %33, ptr noundef %17, i64 noundef %24, ptr noundef %25), !dbg !2133
  br label %35, !dbg !2133

35:                                               ; preds = %5
  ret void, !dbg !2134
}

; Function Attrs: nocallback nofree nosync nounwind speculatable willreturn memory(none)
declare void @llvm.dbg.declare(metadata, metadata, metadata) #1

declare i32 @__cudaPopCallConfiguration(ptr, ptr, ptr, ptr)

declare i32 @cudaLaunchKernel(ptr, i64, i32, i64, i32, ptr, i64, ptr)

; Function Attrs: nocallback nofree nounwind willreturn memory(argmem: readwrite)
declare void @llvm.memcpy.p0.p0.i64(ptr noalias nocapture writeonly, ptr noalias nocapture readonly, i64, i1 immarg) #2

; Function Attrs: mustprogress noinline norecurse optnone uwtable
define dso_local noundef i32 @main(i32 noundef %0, ptr noundef %1) #3 personality ptr @__gxx_personality_v0 !dbg !2135 {
  %3 = alloca i32, align 4
  %4 = alloca i32, align 4
  %5 = alloca ptr, align 8
  %6 = alloca i32, align 4
  %7 = alloca float, align 4
  %8 = alloca float, align 4
  %9 = alloca i32, align 4
  %10 = alloca i32, align 4
  %11 = alloca i32, align 4
  %12 = alloca i32, align 4
  %13 = alloca %"class.std::vector", align 8
  %14 = alloca %"class.std::vector.0", align 8
  %15 = alloca [100 x i8], align 16
  %16 = alloca i32, align 4
  %17 = alloca ptr, align 8
  %18 = alloca i32, align 4
  %19 = alloca i32, align 4
  %20 = alloca i32, align 4
  %21 = alloca ptr, align 8
  %22 = alloca ptr, align 8
  %23 = alloca ptr, align 8
  %24 = alloca %struct.cudaDeviceProp, align 8
  %25 = alloca i64, align 8
  %26 = alloca i64, align 8
  %27 = alloca i64, align 8
  %28 = alloca i64, align 8
  %29 = alloca i64, align 8
  %30 = alloca i64, align 8
  %31 = alloca i64, align 8
  %32 = alloca %struct.dim3, align 4
  %33 = alloca %struct.dim3, align 4
  %34 = alloca %struct.dim3, align 4
  %35 = alloca { i64, i32 }, align 4
  %36 = alloca { i64, i32 }, align 4
  store i32 0, ptr %3, align 4
  store i32 %0, ptr %4, align 4
  call void @llvm.dbg.declare(metadata ptr %4, metadata !2138, metadata !DIExpression()), !dbg !2139
  store ptr %1, ptr %5, align 8
  call void @llvm.dbg.declare(metadata ptr %5, metadata !2140, metadata !DIExpression()), !dbg !2141
  %37 = call i32 @cudaSetDevice(i32 noundef 0), !dbg !2142
  call void @llvm.dbg.declare(metadata ptr %6, metadata !2143, metadata !DIExpression()), !dbg !2144
  store i32 0, ptr %6, align 4, !dbg !2144
  call void @llvm.dbg.declare(metadata ptr %7, metadata !2145, metadata !DIExpression()), !dbg !2146
  call void @llvm.dbg.declare(metadata ptr %8, metadata !2147, metadata !DIExpression()), !dbg !2148
  call void @llvm.dbg.declare(metadata ptr %9, metadata !2149, metadata !DIExpression()), !dbg !2150
  store i32 0, ptr %9, align 4, !dbg !2150
  call void @llvm.dbg.declare(metadata ptr %10, metadata !2151, metadata !DIExpression()), !dbg !2152
  store i32 0, ptr %10, align 4, !dbg !2152
  call void @llvm.dbg.declare(metadata ptr %11, metadata !2153, metadata !DIExpression()), !dbg !2154
  store i32 0, ptr %11, align 4, !dbg !2154
  call void @llvm.dbg.declare(metadata ptr %12, metadata !2155, metadata !DIExpression()), !dbg !2156
  store i32 0, ptr %12, align 4, !dbg !2156
  call void @llvm.dbg.declare(metadata ptr %13, metadata !2157, metadata !DIExpression()), !dbg !2158
  call void @_ZNSt6vectorI6recordSaIS0_EEC2Ev(ptr noundef nonnull align 8 dereferenceable(24) %13) #17, !dbg !2158
  call void @llvm.dbg.declare(metadata ptr %14, metadata !2159, metadata !DIExpression()), !dbg !2160
  call void @_ZNSt6vectorI7latLongSaIS0_EEC2Ev(ptr noundef nonnull align 8 dereferenceable(24) %14) #17, !dbg !2160
  call void @llvm.dbg.declare(metadata ptr %15, metadata !2161, metadata !DIExpression()), !dbg !2165
  call void @llvm.dbg.declare(metadata ptr %16, metadata !2166, metadata !DIExpression()), !dbg !2167
  store i32 10, ptr %16, align 4, !dbg !2167
  %38 = load i32, ptr %4, align 4, !dbg !2168
  %39 = load ptr, ptr %5, align 8, !dbg !2170
  %40 = getelementptr inbounds [100 x i8], ptr %15, i64 0, i64 0, !dbg !2171
  %41 = invoke noundef i32 @_Z16parseCommandlineiPPcS_PiPfS2_S1_S1_S1_S1_(i32 noundef %38, ptr noundef %39, ptr noundef %40, ptr noundef %16, ptr noundef %7, ptr noundef %8, ptr noundef %9, ptr noundef %10, ptr noundef %11, ptr noundef %12)
          to label %42 unwind label %46, !dbg !2172

42:                                               ; preds = %2
  %43 = icmp ne i32 %41, 0, !dbg !2172
  br i1 %43, label %44, label %50, !dbg !2173

44:                                               ; preds = %42
  invoke void @_Z10printUsagev()
          to label %45 unwind label %46, !dbg !2174

45:                                               ; preds = %44
  store i32 0, ptr %3, align 4, !dbg !2176
  store i32 1, ptr %19, align 4
  br label %205, !dbg !2176

46:                                               ; preds = %201, %197, %179, %169, %165, %163, %156, %154, %152, %145, %133, %130, %127, %121, %119, %116, %109, %104, %95, %67, %65, %63, %61, %52, %50, %44, %2
  %47 = landingpad { ptr, i32 }
          cleanup, !dbg !2177
  %48 = extractvalue { ptr, i32 } %47, 0, !dbg !2177
  store ptr %48, ptr %17, align 8, !dbg !2177
  %49 = extractvalue { ptr, i32 } %47, 1, !dbg !2177
  store i32 %49, ptr %18, align 4, !dbg !2177
  call void @_ZNSt6vectorI7latLongSaIS0_EED2Ev(ptr noundef nonnull align 8 dereferenceable(24) %14) #17, !dbg !2178
  call void @_ZNSt6vectorI6recordSaIS0_EED2Ev(ptr noundef nonnull align 8 dereferenceable(24) %13) #17, !dbg !2178
  br label %209, !dbg !2178

50:                                               ; preds = %42
  %51 = invoke i32 (ptr, ...) @printf(ptr noundef @.str)
          to label %52 unwind label %46, !dbg !2179

52:                                               ; preds = %50
  call void @llvm.dbg.declare(metadata ptr %20, metadata !2180, metadata !DIExpression()), !dbg !2181
  %53 = getelementptr inbounds [100 x i8], ptr %15, i64 0, i64 0, !dbg !2182
  %54 = invoke noundef i32 @_Z8loadDataPcRSt6vectorI6recordSaIS1_EERS0_I7latLongSaIS5_EE(ptr noundef %53, ptr noundef nonnull align 8 dereferenceable(24) %13, ptr noundef nonnull align 8 dereferenceable(24) %14)
          to label %55 unwind label %46, !dbg !2183

55:                                               ; preds = %52
  store i32 %54, ptr %20, align 4, !dbg !2181
  %56 = load i32, ptr %16, align 4, !dbg !2184
  %57 = load i32, ptr %20, align 4, !dbg !2186
  %58 = icmp sgt i32 %56, %57, !dbg !2187
  br i1 %58, label %59, label %61, !dbg !2188

59:                                               ; preds = %55
  %60 = load i32, ptr %20, align 4, !dbg !2189
  store i32 %60, ptr %16, align 4, !dbg !2190
  br label %61, !dbg !2191

61:                                               ; preds = %59, %55
  %62 = invoke i32 (ptr, ...) @printf(ptr noundef @.str.1)
          to label %63 unwind label %46, !dbg !2192

63:                                               ; preds = %61
  call void @llvm.dbg.declare(metadata ptr %21, metadata !2193, metadata !DIExpression()), !dbg !2194
  call void @llvm.dbg.declare(metadata ptr %22, metadata !2195, metadata !DIExpression()), !dbg !2196
  call void @llvm.dbg.declare(metadata ptr %23, metadata !2197, metadata !DIExpression()), !dbg !2198
  call void @llvm.dbg.declare(metadata ptr %24, metadata !2199, metadata !DIExpression()), !dbg !2316
  %64 = invoke i32 @cudaGetDeviceProperties_v2(ptr noundef %24, i32 noundef 0)
          to label %65 unwind label %46, !dbg !2317

65:                                               ; preds = %63
  %66 = invoke i32 @cudaDeviceSynchronize()
          to label %67 unwind label %46, !dbg !2318

67:                                               ; preds = %65
  call void @llvm.dbg.declare(metadata ptr %25, metadata !2319, metadata !DIExpression()), !dbg !2320
  %68 = getelementptr inbounds %struct.cudaDeviceProp, ptr %24, i32 0, i32 11, !dbg !2321
  %69 = getelementptr inbounds [3 x i32], ptr %68, i64 0, i64 0, !dbg !2322
  %70 = load i32, ptr %69, align 8, !dbg !2322
  %71 = sext i32 %70 to i64, !dbg !2322
  store i64 %71, ptr %25, align 8, !dbg !2320
  call void @llvm.dbg.declare(metadata ptr %26, metadata !2323, metadata !DIExpression()), !dbg !2324
  store i64 64, ptr %26, align 8, !dbg !2324
  call void @llvm.dbg.declare(metadata ptr %27, metadata !2325, metadata !DIExpression()), !dbg !2326
  call void @llvm.dbg.declare(metadata ptr %28, metadata !2327, metadata !DIExpression()), !dbg !2328
  call void @llvm.dbg.declare(metadata ptr %29, metadata !2329, metadata !DIExpression()), !dbg !2330
  %72 = load i32, ptr %20, align 4, !dbg !2331
  %73 = sext i32 %72 to i64, !dbg !2331
  %74 = load i64, ptr %26, align 8, !dbg !2332
  %75 = add i64 %73, %74, !dbg !2333
  %76 = sub i64 %75, 1, !dbg !2334
  %77 = load i64, ptr %26, align 8, !dbg !2335
  %78 = udiv i64 %76, %77, !dbg !2336
  store i64 %78, ptr %29, align 8, !dbg !2330
  call void @llvm.dbg.declare(metadata ptr %30, metadata !2337, metadata !DIExpression()), !dbg !2338
  %79 = load i64, ptr %29, align 8, !dbg !2339
  %80 = load i64, ptr %25, align 8, !dbg !2340
  %81 = add i64 %79, %80, !dbg !2341
  %82 = sub i64 %81, 1, !dbg !2342
  %83 = load i64, ptr %25, align 8, !dbg !2343
  %84 = udiv i64 %82, %83, !dbg !2344
  store i64 %84, ptr %30, align 8, !dbg !2338
  call void @llvm.dbg.declare(metadata ptr %31, metadata !2345, metadata !DIExpression()), !dbg !2346
  %85 = load i64, ptr %29, align 8, !dbg !2347
  %86 = load i64, ptr %30, align 8, !dbg !2348
  %87 = add i64 %85, %86, !dbg !2349
  %88 = sub i64 %87, 1, !dbg !2350
  %89 = load i64, ptr %30, align 8, !dbg !2351
  %90 = udiv i64 %88, %89, !dbg !2352
  store i64 %90, ptr %31, align 8, !dbg !2346
  call void @llvm.dbg.declare(metadata ptr %32, metadata !2353, metadata !DIExpression()), !dbg !2355
  %91 = load i64, ptr %31, align 8, !dbg !2356
  %92 = trunc i64 %91 to i32, !dbg !2356
  %93 = load i64, ptr %30, align 8, !dbg !2357
  %94 = trunc i64 %93 to i32, !dbg !2357
  invoke void @_ZN4dim3C2Ejjj(ptr noundef nonnull align 4 dereferenceable(12) %32, i32 noundef %92, i32 noundef %94, i32 noundef 1)
          to label %95 unwind label %46, !dbg !2355

95:                                               ; preds = %67
  %96 = load i32, ptr %20, align 4, !dbg !2358
  %97 = sext i32 %96 to i64, !dbg !2358
  %98 = mul i64 4, %97, !dbg !2359
  %99 = call noalias ptr @malloc(i64 noundef %98) #18, !dbg !2360
  store ptr %99, ptr %21, align 8, !dbg !2361
  %100 = load i32, ptr %20, align 4, !dbg !2362
  %101 = sext i32 %100 to i64, !dbg !2362
  %102 = mul i64 8, %101, !dbg !2363
  %103 = invoke i32 @cudaMalloc(ptr noundef %22, i64 noundef %102)
          to label %104 unwind label %46, !dbg !2364

104:                                              ; preds = %95
  %105 = load i32, ptr %20, align 4, !dbg !2365
  %106 = sext i32 %105 to i64, !dbg !2365
  %107 = mul i64 4, %106, !dbg !2366
  %108 = invoke i32 @cudaMalloc(ptr noundef %23, i64 noundef %107)
          to label %109 unwind label %46, !dbg !2367

109:                                              ; preds = %104
  %110 = load ptr, ptr %22, align 8, !dbg !2368
  %111 = call noundef nonnull align 4 dereferenceable(8) ptr @_ZNSt6vectorI7latLongSaIS0_EEixEm(ptr noundef nonnull align 8 dereferenceable(24) %14, i64 noundef 0) #17, !dbg !2369
  %112 = load i32, ptr %20, align 4, !dbg !2370
  %113 = sext i32 %112 to i64, !dbg !2370
  %114 = mul i64 8, %113, !dbg !2371
  %115 = invoke i32 @cudaMemcpy(ptr noundef %110, ptr noundef %111, i64 noundef %114, i32 noundef 1)
          to label %116 unwind label %46, !dbg !2372

116:                                              ; preds = %109
  %117 = load i32, ptr %20, align 4, !dbg !2373
  %118 = invoke i32 (ptr, ...) @printf(ptr noundef @.str.2, i64 noundef 8, i64 noundef 4, i32 noundef %117)
          to label %119 unwind label %46, !dbg !2374

119:                                              ; preds = %116
  %120 = invoke i32 (ptr, ...) @printf(ptr noundef @.str.3)
          to label %121 unwind label %46, !dbg !2375

121:                                              ; preds = %119
  %122 = getelementptr inbounds %struct.dim3, ptr %32, i32 0, i32 0, !dbg !2376
  %123 = load i32, ptr %122, align 4, !dbg !2376
  %124 = getelementptr inbounds %struct.dim3, ptr %32, i32 0, i32 1, !dbg !2377
  %125 = load i32, ptr %124, align 4, !dbg !2377
  %126 = invoke i32 (ptr, ...) @printf(ptr noundef @.str.4, i32 noundef %123, i32 noundef %125)
          to label %127 unwind label %46, !dbg !2378

127:                                              ; preds = %121
  %128 = load i64, ptr %26, align 8, !dbg !2379
  %129 = invoke i32 (ptr, ...) @printf(ptr noundef @.str.5, i64 noundef %128)
          to label %130 unwind label %46, !dbg !2380

130:                                              ; preds = %127
  call void @llvm.memcpy.p0.p0.i64(ptr align 4 %33, ptr align 4 %32, i64 12, i1 false), !dbg !2381
  %131 = load i64, ptr %26, align 8, !dbg !2382
  %132 = trunc i64 %131 to i32, !dbg !2382
  invoke void @_ZN4dim3C2Ejjj(ptr noundef nonnull align 4 dereferenceable(12) %34, i32 noundef %132, i32 noundef 1, i32 noundef 1)
          to label %133 unwind label %46, !dbg !2382

133:                                              ; preds = %130
  call void @llvm.memcpy.p0.p0.i64(ptr align 4 %35, ptr align 4 %33, i64 12, i1 false), !dbg !2383
  %134 = getelementptr inbounds { i64, i32 }, ptr %35, i32 0, i32 0, !dbg !2383
  %135 = load i64, ptr %134, align 4, !dbg !2383
  %136 = getelementptr inbounds { i64, i32 }, ptr %35, i32 0, i32 1, !dbg !2383
  %137 = load i32, ptr %136, align 4, !dbg !2383
  call void @llvm.memcpy.p0.p0.i64(ptr align 4 %36, ptr align 4 %34, i64 12, i1 false), !dbg !2383
  %138 = getelementptr inbounds { i64, i32 }, ptr %36, i32 0, i32 0, !dbg !2383
  %139 = load i64, ptr %138, align 4, !dbg !2383
  %140 = getelementptr inbounds { i64, i32 }, ptr %36, i32 0, i32 1, !dbg !2383
  %141 = load i32, ptr %140, align 4, !dbg !2383
  %142 = invoke i32 @__cudaPushCallConfiguration(i64 %135, i32 %137, i64 %139, i32 %141, i64 noundef 0, ptr noundef null)
          to label %143 unwind label %46, !dbg !2383

143:                                              ; preds = %133
  %144 = icmp ne i32 %142, 0, !dbg !2383
  br i1 %144, label %152, label %145, !dbg !2384

145:                                              ; preds = %143
  %146 = load ptr, ptr %22, align 8, !dbg !2385
  %147 = load ptr, ptr %23, align 8, !dbg !2386
  %148 = load i32, ptr %20, align 4, !dbg !2387
  %149 = load float, ptr %7, align 4, !dbg !2388
  %150 = load float, ptr %8, align 4, !dbg !2389
  invoke void @_Z21__device_stub__euclidP7latLongPfiff(ptr noundef %146, ptr noundef %147, i32 noundef %148, float noundef %149, float noundef %150) #19
          to label %151 unwind label %46, !dbg !2384

151:                                              ; preds = %145
  br label %152, !dbg !2384

152:                                              ; preds = %151, %143
  %153 = invoke i32 @cudaDeviceSynchronize()
          to label %154 unwind label %46, !dbg !2390

154:                                              ; preds = %152
  %155 = invoke i32 (ptr, ...) @printf(ptr noundef @.str.6)
          to label %156 unwind label %46, !dbg !2391

156:                                              ; preds = %154
  %157 = load ptr, ptr %21, align 8, !dbg !2392
  %158 = load ptr, ptr %23, align 8, !dbg !2393
  %159 = load i32, ptr %20, align 4, !dbg !2394
  %160 = sext i32 %159 to i64, !dbg !2394
  %161 = mul i64 4, %160, !dbg !2395
  %162 = invoke i32 @cudaMemcpy(ptr noundef %157, ptr noundef %158, i64 noundef %161, i32 noundef 2)
          to label %163 unwind label %46, !dbg !2396

163:                                              ; preds = %156
  %164 = invoke i32 (ptr, ...) @printf(ptr noundef @.str.7)
          to label %165 unwind label %46, !dbg !2397

165:                                              ; preds = %163
  %166 = load ptr, ptr %21, align 8, !dbg !2398
  %167 = load i32, ptr %20, align 4, !dbg !2399
  %168 = load i32, ptr %16, align 4, !dbg !2400
  invoke void @_Z10findLowestRSt6vectorI6recordSaIS0_EEPfii(ptr noundef nonnull align 8 dereferenceable(24) %13, ptr noundef %166, i32 noundef %167, i32 noundef %168)
          to label %169 unwind label %46, !dbg !2401

169:                                              ; preds = %165
  %170 = invoke i32 (ptr, ...) @printf(ptr noundef @.str.8)
          to label %171 unwind label %46, !dbg !2402

171:                                              ; preds = %169
  %172 = load i32, ptr %9, align 4, !dbg !2403
  %173 = icmp ne i32 %172, 0, !dbg !2403
  br i1 %173, label %197, label %174, !dbg !2405

174:                                              ; preds = %171
  store i32 0, ptr %6, align 4, !dbg !2406
  br label %175, !dbg !2408

175:                                              ; preds = %193, %174
  %176 = load i32, ptr %6, align 4, !dbg !2409
  %177 = load i32, ptr %16, align 4, !dbg !2411
  %178 = icmp slt i32 %176, %177, !dbg !2412
  br i1 %178, label %179, label %196, !dbg !2413

179:                                              ; preds = %175
  %180 = load i32, ptr %6, align 4, !dbg !2414
  %181 = sext i32 %180 to i64, !dbg !2414
  %182 = call noundef nonnull align 4 dereferenceable(60) ptr @_ZNSt6vectorI6recordSaIS0_EEixEm(ptr noundef nonnull align 8 dereferenceable(24) %13, i64 noundef %181) #17, !dbg !2416
  %183 = getelementptr inbounds %struct.record, ptr %182, i32 0, i32 0, !dbg !2417
  %184 = getelementptr inbounds [53 x i8], ptr %183, i64 0, i64 0, !dbg !2416
  %185 = load i32, ptr %6, align 4, !dbg !2418
  %186 = sext i32 %185 to i64, !dbg !2418
  %187 = call noundef nonnull align 4 dereferenceable(60) ptr @_ZNSt6vectorI6recordSaIS0_EEixEm(ptr noundef nonnull align 8 dereferenceable(24) %13, i64 noundef %186) #17, !dbg !2419
  %188 = getelementptr inbounds %struct.record, ptr %187, i32 0, i32 1, !dbg !2420
  %189 = load float, ptr %188, align 4, !dbg !2420
  %190 = fpext float %189 to double, !dbg !2419
  %191 = invoke i32 (ptr, ...) @printf(ptr noundef @.str.9, ptr noundef %184, double noundef %190)
          to label %192 unwind label %46, !dbg !2421

192:                                              ; preds = %179
  br label %193, !dbg !2422

193:                                              ; preds = %192
  %194 = load i32, ptr %6, align 4, !dbg !2423
  %195 = add nsw i32 %194, 1, !dbg !2423
  store i32 %195, ptr %6, align 4, !dbg !2423
  br label %175, !dbg !2424, !llvm.loop !2425

196:                                              ; preds = %175
  br label %197, !dbg !2426

197:                                              ; preds = %196, %171
  %198 = load ptr, ptr %21, align 8, !dbg !2428
  call void @free(ptr noundef %198) #17, !dbg !2429
  %199 = load ptr, ptr %22, align 8, !dbg !2430
  %200 = invoke i32 @cudaFree(ptr noundef %199)
          to label %201 unwind label %46, !dbg !2431

201:                                              ; preds = %197
  %202 = load ptr, ptr %23, align 8, !dbg !2432
  %203 = invoke i32 @cudaFree(ptr noundef %202)
          to label %204 unwind label %46, !dbg !2433

204:                                              ; preds = %201
  store i32 0, ptr %19, align 4, !dbg !2178
  br label %205, !dbg !2178

205:                                              ; preds = %204, %45
  call void @_ZNSt6vectorI7latLongSaIS0_EED2Ev(ptr noundef nonnull align 8 dereferenceable(24) %14) #17, !dbg !2178
  call void @_ZNSt6vectorI6recordSaIS0_EED2Ev(ptr noundef nonnull align 8 dereferenceable(24) %13) #17, !dbg !2178
  %206 = load i32, ptr %19, align 4
  switch i32 %206, label %214 [
    i32 0, label %207
    i32 1, label %207
  ]

207:                                              ; preds = %205, %205
  %208 = load i32, ptr %3, align 4, !dbg !2178
  ret i32 %208, !dbg !2178

209:                                              ; preds = %46
  %210 = load ptr, ptr %17, align 8, !dbg !2178
  %211 = load i32, ptr %18, align 4, !dbg !2178
  %212 = insertvalue { ptr, i32 } poison, ptr %210, 0, !dbg !2178
  %213 = insertvalue { ptr, i32 } %212, i32 %211, 1, !dbg !2178
  resume { ptr, i32 } %213, !dbg !2178

214:                                              ; preds = %205
  unreachable
}

declare i32 @cudaSetDevice(i32 noundef) #4

; Function Attrs: mustprogress noinline nounwind optnone uwtable
define linkonce_odr dso_local void @_ZNSt6vectorI6recordSaIS0_EEC2Ev(ptr noundef nonnull align 8 dereferenceable(24) %0) unnamed_addr #5 comdat align 2 !dbg !2434 {
  %2 = alloca ptr, align 8
  store ptr %0, ptr %2, align 8
  call void @llvm.dbg.declare(metadata ptr %2, metadata !2435, metadata !DIExpression()), !dbg !2437
  %3 = load ptr, ptr %2, align 8
  call void @_ZNSt12_Vector_baseI6recordSaIS0_EEC2Ev(ptr noundef nonnull align 8 dereferenceable(24) %3) #17, !dbg !2438
  ret void, !dbg !2439
}

; Function Attrs: mustprogress noinline nounwind optnone uwtable
define linkonce_odr dso_local void @_ZNSt6vectorI7latLongSaIS0_EEC2Ev(ptr noundef nonnull align 8 dereferenceable(24) %0) unnamed_addr #5 comdat align 2 !dbg !2440 {
  %2 = alloca ptr, align 8
  store ptr %0, ptr %2, align 8
  call void @llvm.dbg.declare(metadata ptr %2, metadata !2441, metadata !DIExpression()), !dbg !2443
  %3 = load ptr, ptr %2, align 8
  call void @_ZNSt12_Vector_baseI7latLongSaIS0_EEC2Ev(ptr noundef nonnull align 8 dereferenceable(24) %3) #17, !dbg !2444
  ret void, !dbg !2445
}

; Function Attrs: mustprogress noinline nounwind optnone uwtable
define dso_local noundef i32 @_Z16parseCommandlineiPPcS_PiPfS2_S1_S1_S1_S1_(i32 noundef %0, ptr noundef %1, ptr noundef %2, ptr noundef %3, ptr noundef %4, ptr noundef %5, ptr noundef %6, ptr noundef %7, ptr noundef %8, ptr noundef %9) #5 !dbg !2446 {
  %11 = alloca i32, align 4
  %12 = alloca i32, align 4
  %13 = alloca ptr, align 8
  %14 = alloca ptr, align 8
  %15 = alloca ptr, align 8
  %16 = alloca ptr, align 8
  %17 = alloca ptr, align 8
  %18 = alloca ptr, align 8
  %19 = alloca ptr, align 8
  %20 = alloca ptr, align 8
  %21 = alloca ptr, align 8
  %22 = alloca i32, align 4
  %23 = alloca i8, align 1
  store i32 %0, ptr %12, align 4
  call void @llvm.dbg.declare(metadata ptr %12, metadata !2449, metadata !DIExpression()), !dbg !2450
  store ptr %1, ptr %13, align 8
  call void @llvm.dbg.declare(metadata ptr %13, metadata !2451, metadata !DIExpression()), !dbg !2452
  store ptr %2, ptr %14, align 8
  call void @llvm.dbg.declare(metadata ptr %14, metadata !2453, metadata !DIExpression()), !dbg !2454
  store ptr %3, ptr %15, align 8
  call void @llvm.dbg.declare(metadata ptr %15, metadata !2455, metadata !DIExpression()), !dbg !2456
  store ptr %4, ptr %16, align 8
  call void @llvm.dbg.declare(metadata ptr %16, metadata !2457, metadata !DIExpression()), !dbg !2458
  store ptr %5, ptr %17, align 8
  call void @llvm.dbg.declare(metadata ptr %17, metadata !2459, metadata !DIExpression()), !dbg !2460
  store ptr %6, ptr %18, align 8
  call void @llvm.dbg.declare(metadata ptr %18, metadata !2461, metadata !DIExpression()), !dbg !2462
  store ptr %7, ptr %19, align 8
  call void @llvm.dbg.declare(metadata ptr %19, metadata !2463, metadata !DIExpression()), !dbg !2464
  store ptr %8, ptr %20, align 8
  call void @llvm.dbg.declare(metadata ptr %20, metadata !2465, metadata !DIExpression()), !dbg !2466
  store ptr %9, ptr %21, align 8
  call void @llvm.dbg.declare(metadata ptr %21, metadata !2467, metadata !DIExpression()), !dbg !2468
  call void @llvm.dbg.declare(metadata ptr %22, metadata !2469, metadata !DIExpression()), !dbg !2470
  %24 = load i32, ptr %12, align 4, !dbg !2471
  %25 = icmp slt i32 %24, 2, !dbg !2473
  br i1 %25, label %26, label %27, !dbg !2474

26:                                               ; preds = %10
  store i32 1, ptr %11, align 4, !dbg !2475
  br label %148, !dbg !2475

27:                                               ; preds = %10
  %28 = load ptr, ptr %14, align 8, !dbg !2476
  %29 = load ptr, ptr %13, align 8, !dbg !2477
  %30 = getelementptr inbounds ptr, ptr %29, i64 1, !dbg !2477
  %31 = load ptr, ptr %30, align 8, !dbg !2477
  %32 = call ptr @strncpy(ptr noundef %28, ptr noundef %31, i64 noundef 100) #17, !dbg !2478
  call void @llvm.dbg.declare(metadata ptr %23, metadata !2479, metadata !DIExpression()), !dbg !2480
  store i32 1, ptr %22, align 4, !dbg !2481
  br label %33, !dbg !2483

33:                                               ; preds = %127, %27
  %34 = load i32, ptr %22, align 4, !dbg !2484
  %35 = load i32, ptr %12, align 4, !dbg !2486
  %36 = icmp slt i32 %34, %35, !dbg !2487
  br i1 %36, label %37, label %130, !dbg !2488

37:                                               ; preds = %33
  %38 = load ptr, ptr %13, align 8, !dbg !2489
  %39 = load i32, ptr %22, align 4, !dbg !2492
  %40 = sext i32 %39 to i64, !dbg !2489
  %41 = getelementptr inbounds ptr, ptr %38, i64 %40, !dbg !2489
  %42 = load ptr, ptr %41, align 8, !dbg !2489
  %43 = getelementptr inbounds i8, ptr %42, i64 0, !dbg !2489
  %44 = load i8, ptr %43, align 1, !dbg !2489
  %45 = sext i8 %44 to i32, !dbg !2489
  %46 = icmp eq i32 %45, 45, !dbg !2493
  br i1 %46, label %47, label %126, !dbg !2494

47:                                               ; preds = %37
  %48 = load ptr, ptr %13, align 8, !dbg !2495
  %49 = load i32, ptr %22, align 4, !dbg !2497
  %50 = sext i32 %49 to i64, !dbg !2495
  %51 = getelementptr inbounds ptr, ptr %48, i64 %50, !dbg !2495
  %52 = load ptr, ptr %51, align 8, !dbg !2495
  %53 = getelementptr inbounds i8, ptr %52, i64 1, !dbg !2495
  %54 = load i8, ptr %53, align 1, !dbg !2495
  store i8 %54, ptr %23, align 1, !dbg !2498
  %55 = load i8, ptr %23, align 1, !dbg !2499
  %56 = sext i8 %55 to i32, !dbg !2499
  switch i32 %56, label %125 [
    i32 114, label %57
    i32 108, label %67
    i32 104, label %100
    i32 113, label %101
    i32 116, label %103
    i32 112, label %105
    i32 100, label %115
  ], !dbg !2500

57:                                               ; preds = %47
  %58 = load i32, ptr %22, align 4, !dbg !2501
  %59 = add nsw i32 %58, 1, !dbg !2501
  store i32 %59, ptr %22, align 4, !dbg !2501
  %60 = load ptr, ptr %13, align 8, !dbg !2503
  %61 = load i32, ptr %22, align 4, !dbg !2504
  %62 = sext i32 %61 to i64, !dbg !2503
  %63 = getelementptr inbounds ptr, ptr %60, i64 %62, !dbg !2503
  %64 = load ptr, ptr %63, align 8, !dbg !2503
  %65 = call i32 @atoi(ptr noundef %64) #20, !dbg !2505
  %66 = load ptr, ptr %15, align 8, !dbg !2506
  store i32 %65, ptr %66, align 4, !dbg !2507
  br label %125, !dbg !2508

67:                                               ; preds = %47
  %68 = load ptr, ptr %13, align 8, !dbg !2509
  %69 = load i32, ptr %22, align 4, !dbg !2511
  %70 = sext i32 %69 to i64, !dbg !2509
  %71 = getelementptr inbounds ptr, ptr %68, i64 %70, !dbg !2509
  %72 = load ptr, ptr %71, align 8, !dbg !2509
  %73 = getelementptr inbounds i8, ptr %72, i64 2, !dbg !2509
  %74 = load i8, ptr %73, align 1, !dbg !2509
  %75 = sext i8 %74 to i32, !dbg !2509
  %76 = icmp eq i32 %75, 97, !dbg !2512
  br i1 %76, label %77, label %87, !dbg !2513

77:                                               ; preds = %67
  %78 = load ptr, ptr %13, align 8, !dbg !2514
  %79 = load i32, ptr %22, align 4, !dbg !2516
  %80 = add nsw i32 %79, 1, !dbg !2517
  %81 = sext i32 %80 to i64, !dbg !2514
  %82 = getelementptr inbounds ptr, ptr %78, i64 %81, !dbg !2514
  %83 = load ptr, ptr %82, align 8, !dbg !2514
  %84 = call double @atof(ptr noundef %83) #20, !dbg !2518
  %85 = fptrunc double %84 to float, !dbg !2518
  %86 = load ptr, ptr %16, align 8, !dbg !2519
  store float %85, ptr %86, align 4, !dbg !2520
  br label %97, !dbg !2521

87:                                               ; preds = %67
  %88 = load ptr, ptr %13, align 8, !dbg !2522
  %89 = load i32, ptr %22, align 4, !dbg !2524
  %90 = add nsw i32 %89, 1, !dbg !2525
  %91 = sext i32 %90 to i64, !dbg !2522
  %92 = getelementptr inbounds ptr, ptr %88, i64 %91, !dbg !2522
  %93 = load ptr, ptr %92, align 8, !dbg !2522
  %94 = call double @atof(ptr noundef %93) #20, !dbg !2526
  %95 = fptrunc double %94 to float, !dbg !2526
  %96 = load ptr, ptr %17, align 8, !dbg !2527
  store float %95, ptr %96, align 4, !dbg !2528
  br label %97

97:                                               ; preds = %87, %77
  %98 = load i32, ptr %22, align 4, !dbg !2529
  %99 = add nsw i32 %98, 1, !dbg !2529
  store i32 %99, ptr %22, align 4, !dbg !2529
  br label %125, !dbg !2530

100:                                              ; preds = %47
  store i32 1, ptr %11, align 4, !dbg !2531
  br label %148, !dbg !2531

101:                                              ; preds = %47
  %102 = load ptr, ptr %18, align 8, !dbg !2532
  store i32 1, ptr %102, align 4, !dbg !2533
  br label %125, !dbg !2534

103:                                              ; preds = %47
  %104 = load ptr, ptr %19, align 8, !dbg !2535
  store i32 1, ptr %104, align 4, !dbg !2536
  br label %125, !dbg !2537

105:                                              ; preds = %47
  %106 = load i32, ptr %22, align 4, !dbg !2538
  %107 = add nsw i32 %106, 1, !dbg !2538
  store i32 %107, ptr %22, align 4, !dbg !2538
  %108 = load ptr, ptr %13, align 8, !dbg !2539
  %109 = load i32, ptr %22, align 4, !dbg !2540
  %110 = sext i32 %109 to i64, !dbg !2539
  %111 = getelementptr inbounds ptr, ptr %108, i64 %110, !dbg !2539
  %112 = load ptr, ptr %111, align 8, !dbg !2539
  %113 = call i32 @atoi(ptr noundef %112) #20, !dbg !2541
  %114 = load ptr, ptr %20, align 8, !dbg !2542
  store i32 %113, ptr %114, align 4, !dbg !2543
  br label %125, !dbg !2544

115:                                              ; preds = %47
  %116 = load i32, ptr %22, align 4, !dbg !2545
  %117 = add nsw i32 %116, 1, !dbg !2545
  store i32 %117, ptr %22, align 4, !dbg !2545
  %118 = load ptr, ptr %13, align 8, !dbg !2546
  %119 = load i32, ptr %22, align 4, !dbg !2547
  %120 = sext i32 %119 to i64, !dbg !2546
  %121 = getelementptr inbounds ptr, ptr %118, i64 %120, !dbg !2546
  %122 = load ptr, ptr %121, align 8, !dbg !2546
  %123 = call i32 @atoi(ptr noundef %122) #20, !dbg !2548
  %124 = load ptr, ptr %21, align 8, !dbg !2549
  store i32 %123, ptr %124, align 4, !dbg !2550
  br label %125, !dbg !2551

125:                                              ; preds = %47, %115, %105, %103, %101, %97, %57
  br label %126, !dbg !2552

126:                                              ; preds = %125, %37
  br label %127, !dbg !2553

127:                                              ; preds = %126
  %128 = load i32, ptr %22, align 4, !dbg !2554
  %129 = add nsw i32 %128, 1, !dbg !2554
  store i32 %129, ptr %22, align 4, !dbg !2554
  br label %33, !dbg !2555, !llvm.loop !2556

130:                                              ; preds = %33
  %131 = load ptr, ptr %21, align 8, !dbg !2558
  %132 = load i32, ptr %131, align 4, !dbg !2560
  %133 = icmp sge i32 %132, 0, !dbg !2561
  br i1 %133, label %134, label %138, !dbg !2562

134:                                              ; preds = %130
  %135 = load ptr, ptr %20, align 8, !dbg !2563
  %136 = load i32, ptr %135, align 4, !dbg !2564
  %137 = icmp slt i32 %136, 0, !dbg !2565
  br i1 %137, label %146, label %138, !dbg !2566

138:                                              ; preds = %134, %130
  %139 = load ptr, ptr %20, align 8, !dbg !2567
  %140 = load i32, ptr %139, align 4, !dbg !2568
  %141 = icmp sge i32 %140, 0, !dbg !2569
  br i1 %141, label %142, label %147, !dbg !2570

142:                                              ; preds = %138
  %143 = load ptr, ptr %21, align 8, !dbg !2571
  %144 = load i32, ptr %143, align 4, !dbg !2572
  %145 = icmp slt i32 %144, 0, !dbg !2573
  br i1 %145, label %146, label %147, !dbg !2574

146:                                              ; preds = %142, %134
  store i32 1, ptr %11, align 4, !dbg !2575
  br label %148, !dbg !2575

147:                                              ; preds = %142, %138
  store i32 0, ptr %11, align 4, !dbg !2576
  br label %148, !dbg !2576

148:                                              ; preds = %147, %146, %100, %26
  %149 = load i32, ptr %11, align 4, !dbg !2577
  ret i32 %149, !dbg !2577
}

declare i32 @__gxx_personality_v0(...)

; Function Attrs: mustprogress noinline optnone uwtable
define dso_local void @_Z10printUsagev() #6 !dbg !2578 {
  %1 = call i32 (ptr, ...) @printf(ptr noundef @.str.14), !dbg !2579
  %2 = call i32 (ptr, ...) @printf(ptr noundef @.str.15), !dbg !2580
  %3 = call i32 (ptr, ...) @printf(ptr noundef @.str.16), !dbg !2581
  %4 = call i32 (ptr, ...) @printf(ptr noundef @.str.15), !dbg !2582
  %5 = call i32 (ptr, ...) @printf(ptr noundef @.str.17), !dbg !2583
  %6 = call i32 (ptr, ...) @printf(ptr noundef @.str.18), !dbg !2584
  %7 = call i32 (ptr, ...) @printf(ptr noundef @.str.15), !dbg !2585
  %8 = call i32 (ptr, ...) @printf(ptr noundef @.str.19), !dbg !2586
  %9 = call i32 (ptr, ...) @printf(ptr noundef @.str.20), !dbg !2587
  %10 = call i32 (ptr, ...) @printf(ptr noundef @.str.21), !dbg !2588
  %11 = call i32 (ptr, ...) @printf(ptr noundef @.str.22), !dbg !2589
  %12 = call i32 (ptr, ...) @printf(ptr noundef @.str.15), !dbg !2590
  %13 = call i32 (ptr, ...) @printf(ptr noundef @.str.23), !dbg !2591
  %14 = call i32 (ptr, ...) @printf(ptr noundef @.str.24), !dbg !2592
  %15 = call i32 (ptr, ...) @printf(ptr noundef @.str.25), !dbg !2593
  %16 = call i32 (ptr, ...) @printf(ptr noundef @.str.15), !dbg !2594
  %17 = call i32 (ptr, ...) @printf(ptr noundef @.str.26), !dbg !2595
  %18 = call i32 (ptr, ...) @printf(ptr noundef @.str.27), !dbg !2596
  %19 = call i32 (ptr, ...) @printf(ptr noundef @.str.15), !dbg !2597
  %20 = call i32 (ptr, ...) @printf(ptr noundef @.str.15), !dbg !2598
  %21 = call i32 (ptr, ...) @printf(ptr noundef @.str.28), !dbg !2599
  %22 = call i32 (ptr, ...) @printf(ptr noundef @.str.29), !dbg !2600
  %23 = call i32 (ptr, ...) @printf(ptr noundef @.str.30), !dbg !2601
  ret void, !dbg !2602
}

declare i32 @printf(ptr noundef, ...) #4

; Function Attrs: mustprogress noinline optnone uwtable
define dso_local noundef i32 @_Z8loadDataPcRSt6vectorI6recordSaIS1_EERS0_I7latLongSaIS5_EE(ptr noundef %0, ptr noundef nonnull align 8 dereferenceable(24) %1, ptr noundef nonnull align 8 dereferenceable(24) %2) #6 !dbg !2603 {
  %4 = alloca ptr, align 8
  %5 = alloca ptr, align 8
  %6 = alloca ptr, align 8
  %7 = alloca ptr, align 8
  %8 = alloca ptr, align 8
  %9 = alloca i32, align 4
  %10 = alloca [64 x i8], align 16
  %11 = alloca i32, align 4
  %12 = alloca %struct.record, align 4
  %13 = alloca %struct.latLong, align 4
  %14 = alloca [6 x i8], align 1
  store ptr %0, ptr %4, align 8
  call void @llvm.dbg.declare(metadata ptr %4, metadata !2606, metadata !DIExpression()), !dbg !2607
  store ptr %1, ptr %5, align 8
  call void @llvm.dbg.declare(metadata ptr %5, metadata !2608, metadata !DIExpression()), !dbg !2609
  store ptr %2, ptr %6, align 8
  call void @llvm.dbg.declare(metadata ptr %6, metadata !2610, metadata !DIExpression()), !dbg !2611
  call void @llvm.dbg.declare(metadata ptr %7, metadata !2612, metadata !DIExpression()), !dbg !2618
  call void @llvm.dbg.declare(metadata ptr %8, metadata !2619, metadata !DIExpression()), !dbg !2620
  call void @llvm.dbg.declare(metadata ptr %9, metadata !2621, metadata !DIExpression()), !dbg !2622
  store i32 0, ptr %9, align 4, !dbg !2622
  call void @llvm.dbg.declare(metadata ptr %10, metadata !2623, metadata !DIExpression()), !dbg !2627
  call void @llvm.dbg.declare(metadata ptr %11, metadata !2628, metadata !DIExpression()), !dbg !2629
  store i32 0, ptr %11, align 4, !dbg !2629
  %15 = load ptr, ptr %4, align 8, !dbg !2630
  %16 = call ptr @fopen(ptr noundef %15, ptr noundef @.str.10), !dbg !2631
  store ptr %16, ptr %7, align 8, !dbg !2632
  br label %17, !dbg !2633

17:                                               ; preds = %105, %3
  %18 = load ptr, ptr %7, align 8, !dbg !2634
  %19 = call i32 @feof(ptr noundef %18) #17, !dbg !2635
  %20 = icmp ne i32 %19, 0, !dbg !2635
  %21 = xor i1 %20, true, !dbg !2636
  br i1 %21, label %22, label %108, !dbg !2633

22:                                               ; preds = %17
  %23 = load ptr, ptr %7, align 8, !dbg !2637
  %24 = getelementptr inbounds [64 x i8], ptr %10, i64 0, i64 0, !dbg !2640
  %25 = call i32 (ptr, ptr, ...) @__isoc99_fscanf(ptr noundef %23, ptr noundef @.str.11, ptr noundef %24), !dbg !2641
  %26 = icmp ne i32 %25, 1, !dbg !2642
  br i1 %26, label %27, label %30, !dbg !2643

27:                                               ; preds = %22
  %28 = load ptr, ptr @stderr, align 8, !dbg !2644
  %29 = call i32 (ptr, ptr, ...) @fprintf(ptr noundef %28, ptr noundef @.str.12), !dbg !2646
  call void @exit(i32 noundef 0) #21, !dbg !2647
  unreachable, !dbg !2647

30:                                               ; preds = %22
  %31 = getelementptr inbounds [64 x i8], ptr %10, i64 0, i64 0, !dbg !2648
  %32 = call ptr @fopen(ptr noundef %31, ptr noundef @.str.10), !dbg !2649
  store ptr %32, ptr %8, align 8, !dbg !2650
  %33 = load ptr, ptr %8, align 8, !dbg !2651
  %34 = icmp ne ptr %33, null, !dbg !2651
  br i1 %34, label %37, label %35, !dbg !2653

35:                                               ; preds = %30
  %36 = call i32 (ptr, ...) @printf(ptr noundef @.str.13), !dbg !2654
  call void @exit(i32 noundef 1) #21, !dbg !2656
  unreachable, !dbg !2656

37:                                               ; preds = %30
  br label %38, !dbg !2657

38:                                               ; preds = %95, %37
  %39 = load ptr, ptr %8, align 8, !dbg !2658
  %40 = call i32 @feof(ptr noundef %39) #17, !dbg !2659
  %41 = icmp ne i32 %40, 0, !dbg !2659
  %42 = xor i1 %41, true, !dbg !2660
  br i1 %42, label %43, label %105, !dbg !2657

43:                                               ; preds = %38
  call void @llvm.dbg.declare(metadata ptr %12, metadata !2661, metadata !DIExpression()), !dbg !2664
  call void @llvm.dbg.declare(metadata ptr %13, metadata !2665, metadata !DIExpression()), !dbg !2666
  %44 = getelementptr inbounds %struct.record, ptr %12, i32 0, i32 0, !dbg !2667
  %45 = getelementptr inbounds [53 x i8], ptr %44, i64 0, i64 0, !dbg !2668
  %46 = load ptr, ptr %8, align 8, !dbg !2669
  %47 = call ptr @fgets(ptr noundef %45, i32 noundef 49, ptr noundef %46), !dbg !2670
  %48 = load ptr, ptr %8, align 8, !dbg !2671
  %49 = call i32 @fgetc(ptr noundef %48), !dbg !2672
  %50 = load ptr, ptr %8, align 8, !dbg !2673
  %51 = call i32 @feof(ptr noundef %50) #17, !dbg !2675
  %52 = icmp ne i32 %51, 0, !dbg !2675
  br i1 %52, label %53, label %54, !dbg !2676

53:                                               ; preds = %43
  br label %105, !dbg !2677

54:                                               ; preds = %43
  call void @llvm.dbg.declare(metadata ptr %14, metadata !2678, metadata !DIExpression()), !dbg !2682
  store i32 0, ptr %9, align 4, !dbg !2683
  br label %55, !dbg !2685

55:                                               ; preds = %69, %54
  %56 = load i32, ptr %9, align 4, !dbg !2686
  %57 = icmp slt i32 %56, 5, !dbg !2688
  br i1 %57, label %58, label %72, !dbg !2689

58:                                               ; preds = %55
  %59 = getelementptr inbounds %struct.record, ptr %12, i32 0, i32 0, !dbg !2690
  %60 = getelementptr inbounds [53 x i8], ptr %59, i64 0, i64 0, !dbg !2691
  %61 = load i32, ptr %9, align 4, !dbg !2692
  %62 = sext i32 %61 to i64, !dbg !2693
  %63 = getelementptr inbounds i8, ptr %60, i64 %62, !dbg !2693
  %64 = getelementptr inbounds i8, ptr %63, i64 28, !dbg !2694
  %65 = load i8, ptr %64, align 1, !dbg !2695
  %66 = load i32, ptr %9, align 4, !dbg !2696
  %67 = sext i32 %66 to i64, !dbg !2697
  %68 = getelementptr inbounds [6 x i8], ptr %14, i64 0, i64 %67, !dbg !2697
  store i8 %65, ptr %68, align 1, !dbg !2698
  br label %69, !dbg !2697

69:                                               ; preds = %58
  %70 = load i32, ptr %9, align 4, !dbg !2699
  %71 = add nsw i32 %70, 1, !dbg !2699
  store i32 %71, ptr %9, align 4, !dbg !2699
  br label %55, !dbg !2700, !llvm.loop !2701

72:                                               ; preds = %55
  %73 = getelementptr inbounds [6 x i8], ptr %14, i64 0, i64 5, !dbg !2703
  store i8 0, ptr %73, align 1, !dbg !2704
  %74 = getelementptr inbounds [6 x i8], ptr %14, i64 0, i64 0, !dbg !2705
  %75 = call double @atof(ptr noundef %74) #20, !dbg !2706
  %76 = fptrunc double %75 to float, !dbg !2706
  %77 = getelementptr inbounds %struct.latLong, ptr %13, i32 0, i32 0, !dbg !2707
  store float %76, ptr %77, align 4, !dbg !2708
  store i32 0, ptr %9, align 4, !dbg !2709
  br label %78, !dbg !2711

78:                                               ; preds = %92, %72
  %79 = load i32, ptr %9, align 4, !dbg !2712
  %80 = icmp slt i32 %79, 5, !dbg !2714
  br i1 %80, label %81, label %95, !dbg !2715

81:                                               ; preds = %78
  %82 = getelementptr inbounds %struct.record, ptr %12, i32 0, i32 0, !dbg !2716
  %83 = getelementptr inbounds [53 x i8], ptr %82, i64 0, i64 0, !dbg !2717
  %84 = load i32, ptr %9, align 4, !dbg !2718
  %85 = sext i32 %84 to i64, !dbg !2719
  %86 = getelementptr inbounds i8, ptr %83, i64 %85, !dbg !2719
  %87 = getelementptr inbounds i8, ptr %86, i64 33, !dbg !2720
  %88 = load i8, ptr %87, align 1, !dbg !2721
  %89 = load i32, ptr %9, align 4, !dbg !2722
  %90 = sext i32 %89 to i64, !dbg !2723
  %91 = getelementptr inbounds [6 x i8], ptr %14, i64 0, i64 %90, !dbg !2723
  store i8 %88, ptr %91, align 1, !dbg !2724
  br label %92, !dbg !2723

92:                                               ; preds = %81
  %93 = load i32, ptr %9, align 4, !dbg !2725
  %94 = add nsw i32 %93, 1, !dbg !2725
  store i32 %94, ptr %9, align 4, !dbg !2725
  br label %78, !dbg !2726, !llvm.loop !2727

95:                                               ; preds = %78
  %96 = getelementptr inbounds [6 x i8], ptr %14, i64 0, i64 5, !dbg !2729
  store i8 0, ptr %96, align 1, !dbg !2730
  %97 = getelementptr inbounds [6 x i8], ptr %14, i64 0, i64 0, !dbg !2731
  %98 = call double @atof(ptr noundef %97) #20, !dbg !2732
  %99 = fptrunc double %98 to float, !dbg !2732
  %100 = getelementptr inbounds %struct.latLong, ptr %13, i32 0, i32 1, !dbg !2733
  store float %99, ptr %100, align 4, !dbg !2734
  %101 = load ptr, ptr %6, align 8, !dbg !2735
  call void @_ZNSt6vectorI7latLongSaIS0_EE9push_backERKS0_(ptr noundef nonnull align 8 dereferenceable(24) %101, ptr noundef nonnull align 4 dereferenceable(8) %13), !dbg !2736
  %102 = load ptr, ptr %5, align 8, !dbg !2737
  call void @_ZNSt6vectorI6recordSaIS0_EE9push_backERKS0_(ptr noundef nonnull align 8 dereferenceable(24) %102, ptr noundef nonnull align 4 dereferenceable(60) %12), !dbg !2738
  %103 = load i32, ptr %11, align 4, !dbg !2739
  %104 = add nsw i32 %103, 1, !dbg !2739
  store i32 %104, ptr %11, align 4, !dbg !2739
  br label %38, !dbg !2657, !llvm.loop !2740

105:                                              ; preds = %53, %38
  %106 = load ptr, ptr %8, align 8, !dbg !2742
  %107 = call i32 @fclose(ptr noundef %106), !dbg !2743
  br label %17, !dbg !2633, !llvm.loop !2744

108:                                              ; preds = %17
  %109 = load ptr, ptr %7, align 8, !dbg !2746
  %110 = call i32 @fclose(ptr noundef %109), !dbg !2747
  %111 = load i32, ptr %11, align 4, !dbg !2748
  ret i32 %111, !dbg !2749
}

declare i32 @cudaGetDeviceProperties_v2(ptr noundef, i32 noundef) #4

declare i32 @cudaDeviceSynchronize() #4

; Function Attrs: mustprogress noinline nounwind optnone uwtable
define linkonce_odr dso_local void @_ZN4dim3C2Ejjj(ptr noundef nonnull align 4 dereferenceable(12) %0, i32 noundef %1, i32 noundef %2, i32 noundef %3) unnamed_addr #5 comdat align 2 !dbg !2750 {
  %5 = alloca ptr, align 8
  %6 = alloca i32, align 4
  %7 = alloca i32, align 4
  %8 = alloca i32, align 4
  store ptr %0, ptr %5, align 8
  call void @llvm.dbg.declare(metadata ptr %5, metadata !2751, metadata !DIExpression()), !dbg !2753
  store i32 %1, ptr %6, align 4
  call void @llvm.dbg.declare(metadata ptr %6, metadata !2754, metadata !DIExpression()), !dbg !2755
  store i32 %2, ptr %7, align 4
  call void @llvm.dbg.declare(metadata ptr %7, metadata !2756, metadata !DIExpression()), !dbg !2757
  store i32 %3, ptr %8, align 4
  call void @llvm.dbg.declare(metadata ptr %8, metadata !2758, metadata !DIExpression()), !dbg !2759
  %9 = load ptr, ptr %5, align 8
  %10 = getelementptr inbounds %struct.dim3, ptr %9, i32 0, i32 0, !dbg !2760
  %11 = load i32, ptr %6, align 4, !dbg !2761
  store i32 %11, ptr %10, align 4, !dbg !2760
  %12 = getelementptr inbounds %struct.dim3, ptr %9, i32 0, i32 1, !dbg !2762
  %13 = load i32, ptr %7, align 4, !dbg !2763
  store i32 %13, ptr %12, align 4, !dbg !2762
  %14 = getelementptr inbounds %struct.dim3, ptr %9, i32 0, i32 2, !dbg !2764
  %15 = load i32, ptr %8, align 4, !dbg !2765
  store i32 %15, ptr %14, align 4, !dbg !2764
  ret void, !dbg !2766
}

; Function Attrs: nounwind allocsize(0)
declare noalias ptr @malloc(i64 noundef) #7

declare i32 @cudaMalloc(ptr noundef, i64 noundef) #4

declare i32 @cudaMemcpy(ptr noundef, ptr noundef, i64 noundef, i32 noundef) #4

; Function Attrs: mustprogress noinline nounwind optnone uwtable
define linkonce_odr dso_local noundef nonnull align 4 dereferenceable(8) ptr @_ZNSt6vectorI7latLongSaIS0_EEixEm(ptr noundef nonnull align 8 dereferenceable(24) %0, i64 noundef %1) #5 comdat align 2 !dbg !2767 {
  %3 = alloca ptr, align 8
  %4 = alloca i64, align 8
  store ptr %0, ptr %3, align 8
  call void @llvm.dbg.declare(metadata ptr %3, metadata !2768, metadata !DIExpression()), !dbg !2769
  store i64 %1, ptr %4, align 8
  call void @llvm.dbg.declare(metadata ptr %4, metadata !2770, metadata !DIExpression()), !dbg !2771
  %5 = load ptr, ptr %3, align 8
  %6 = getelementptr inbounds %"struct.std::_Vector_base.1", ptr %5, i32 0, i32 0, !dbg !2772
  %7 = getelementptr inbounds %"struct.std::_Vector_base<latLong, std::allocator<latLong>>::_Vector_impl_data", ptr %6, i32 0, i32 0, !dbg !2773
  %8 = load ptr, ptr %7, align 8, !dbg !2773
  %9 = load i64, ptr %4, align 8, !dbg !2774
  %10 = getelementptr inbounds %struct.latLong, ptr %8, i64 %9, !dbg !2775
  ret ptr %10, !dbg !2776
}

declare i32 @__cudaPushCallConfiguration(i64, i32, i64, i32, i64 noundef, ptr noundef) #4

; Function Attrs: mustprogress noinline nounwind optnone uwtable
define dso_local void @_Z10findLowestRSt6vectorI6recordSaIS0_EEPfii(ptr noundef nonnull align 8 dereferenceable(24) %0, ptr noundef %1, i32 noundef %2, i32 noundef %3) #5 !dbg !2777 {
  %5 = alloca ptr, align 8
  %6 = alloca ptr, align 8
  %7 = alloca i32, align 4
  %8 = alloca i32, align 4
  %9 = alloca i32, align 4
  %10 = alloca i32, align 4
  %11 = alloca float, align 4
  %12 = alloca i32, align 4
  %13 = alloca ptr, align 8
  %14 = alloca float, align 4
  store ptr %0, ptr %5, align 8
  call void @llvm.dbg.declare(metadata ptr %5, metadata !2780, metadata !DIExpression()), !dbg !2781
  store ptr %1, ptr %6, align 8
  call void @llvm.dbg.declare(metadata ptr %6, metadata !2782, metadata !DIExpression()), !dbg !2783
  store i32 %2, ptr %7, align 4
  call void @llvm.dbg.declare(metadata ptr %7, metadata !2784, metadata !DIExpression()), !dbg !2785
  store i32 %3, ptr %8, align 4
  call void @llvm.dbg.declare(metadata ptr %8, metadata !2786, metadata !DIExpression()), !dbg !2787
  call void @llvm.dbg.declare(metadata ptr %9, metadata !2788, metadata !DIExpression()), !dbg !2789
  call void @llvm.dbg.declare(metadata ptr %10, metadata !2790, metadata !DIExpression()), !dbg !2791
  call void @llvm.dbg.declare(metadata ptr %11, metadata !2792, metadata !DIExpression()), !dbg !2793
  call void @llvm.dbg.declare(metadata ptr %12, metadata !2794, metadata !DIExpression()), !dbg !2795
  call void @llvm.dbg.declare(metadata ptr %13, metadata !2796, metadata !DIExpression()), !dbg !2798
  call void @llvm.dbg.declare(metadata ptr %14, metadata !2799, metadata !DIExpression()), !dbg !2800
  store i32 0, ptr %9, align 4, !dbg !2801
  br label %15, !dbg !2803

15:                                               ; preds = %92, %4
  %16 = load i32, ptr %9, align 4, !dbg !2804
  %17 = load i32, ptr %8, align 4, !dbg !2806
  %18 = icmp slt i32 %16, %17, !dbg !2807
  br i1 %18, label %19, label %95, !dbg !2808

19:                                               ; preds = %15
  %20 = load i32, ptr %9, align 4, !dbg !2809
  store i32 %20, ptr %12, align 4, !dbg !2811
  %21 = load i32, ptr %9, align 4, !dbg !2812
  store i32 %21, ptr %10, align 4, !dbg !2814
  br label %22, !dbg !2815

22:                                               ; preds = %42, %19
  %23 = load i32, ptr %10, align 4, !dbg !2816
  %24 = load i32, ptr %7, align 4, !dbg !2818
  %25 = icmp slt i32 %23, %24, !dbg !2819
  br i1 %25, label %26, label %45, !dbg !2820

26:                                               ; preds = %22
  %27 = load ptr, ptr %6, align 8, !dbg !2821
  %28 = load i32, ptr %10, align 4, !dbg !2823
  %29 = sext i32 %28 to i64, !dbg !2821
  %30 = getelementptr inbounds float, ptr %27, i64 %29, !dbg !2821
  %31 = load float, ptr %30, align 4, !dbg !2821
  store float %31, ptr %11, align 4, !dbg !2824
  %32 = load float, ptr %11, align 4, !dbg !2825
  %33 = load ptr, ptr %6, align 8, !dbg !2827
  %34 = load i32, ptr %12, align 4, !dbg !2828
  %35 = sext i32 %34 to i64, !dbg !2827
  %36 = getelementptr inbounds float, ptr %33, i64 %35, !dbg !2827
  %37 = load float, ptr %36, align 4, !dbg !2827
  %38 = fcmp olt float %32, %37, !dbg !2829
  br i1 %38, label %39, label %41, !dbg !2830

39:                                               ; preds = %26
  %40 = load i32, ptr %10, align 4, !dbg !2831
  store i32 %40, ptr %12, align 4, !dbg !2832
  br label %41, !dbg !2833

41:                                               ; preds = %39, %26
  br label %42, !dbg !2834

42:                                               ; preds = %41
  %43 = load i32, ptr %10, align 4, !dbg !2835
  %44 = add nsw i32 %43, 1, !dbg !2835
  store i32 %44, ptr %10, align 4, !dbg !2835
  br label %22, !dbg !2836, !llvm.loop !2837

45:                                               ; preds = %22
  %46 = load ptr, ptr %5, align 8, !dbg !2839
  %47 = load i32, ptr %9, align 4, !dbg !2840
  %48 = sext i32 %47 to i64, !dbg !2840
  %49 = call noundef nonnull align 4 dereferenceable(60) ptr @_ZNSt6vectorI6recordSaIS0_EEixEm(ptr noundef nonnull align 8 dereferenceable(24) %46, i64 noundef %48) #17, !dbg !2839
  store ptr %49, ptr %13, align 8, !dbg !2841
  %50 = load ptr, ptr %5, align 8, !dbg !2842
  %51 = load i32, ptr %12, align 4, !dbg !2843
  %52 = sext i32 %51 to i64, !dbg !2843
  %53 = call noundef nonnull align 4 dereferenceable(60) ptr @_ZNSt6vectorI6recordSaIS0_EEixEm(ptr noundef nonnull align 8 dereferenceable(24) %50, i64 noundef %52) #17, !dbg !2842
  %54 = load ptr, ptr %5, align 8, !dbg !2844
  %55 = load i32, ptr %9, align 4, !dbg !2845
  %56 = sext i32 %55 to i64, !dbg !2845
  %57 = call noundef nonnull align 4 dereferenceable(60) ptr @_ZNSt6vectorI6recordSaIS0_EEixEm(ptr noundef nonnull align 8 dereferenceable(24) %54, i64 noundef %56) #17, !dbg !2844
  call void @llvm.memcpy.p0.p0.i64(ptr align 4 %57, ptr align 4 %53, i64 60, i1 false), !dbg !2846
  %58 = load ptr, ptr %13, align 8, !dbg !2847
  %59 = load ptr, ptr %5, align 8, !dbg !2848
  %60 = load i32, ptr %12, align 4, !dbg !2849
  %61 = sext i32 %60 to i64, !dbg !2849
  %62 = call noundef nonnull align 4 dereferenceable(60) ptr @_ZNSt6vectorI6recordSaIS0_EEixEm(ptr noundef nonnull align 8 dereferenceable(24) %59, i64 noundef %61) #17, !dbg !2848
  call void @llvm.memcpy.p0.p0.i64(ptr align 4 %62, ptr align 4 %58, i64 60, i1 false), !dbg !2850
  %63 = load ptr, ptr %6, align 8, !dbg !2851
  %64 = load i32, ptr %9, align 4, !dbg !2852
  %65 = sext i32 %64 to i64, !dbg !2851
  %66 = getelementptr inbounds float, ptr %63, i64 %65, !dbg !2851
  %67 = load float, ptr %66, align 4, !dbg !2851
  store float %67, ptr %14, align 4, !dbg !2853
  %68 = load ptr, ptr %6, align 8, !dbg !2854
  %69 = load i32, ptr %12, align 4, !dbg !2855
  %70 = sext i32 %69 to i64, !dbg !2854
  %71 = getelementptr inbounds float, ptr %68, i64 %70, !dbg !2854
  %72 = load float, ptr %71, align 4, !dbg !2854
  %73 = load ptr, ptr %6, align 8, !dbg !2856
  %74 = load i32, ptr %9, align 4, !dbg !2857
  %75 = sext i32 %74 to i64, !dbg !2856
  %76 = getelementptr inbounds float, ptr %73, i64 %75, !dbg !2856
  store float %72, ptr %76, align 4, !dbg !2858
  %77 = load float, ptr %14, align 4, !dbg !2859
  %78 = load ptr, ptr %6, align 8, !dbg !2860
  %79 = load i32, ptr %12, align 4, !dbg !2861
  %80 = sext i32 %79 to i64, !dbg !2860
  %81 = getelementptr inbounds float, ptr %78, i64 %80, !dbg !2860
  store float %77, ptr %81, align 4, !dbg !2862
  %82 = load ptr, ptr %6, align 8, !dbg !2863
  %83 = load i32, ptr %9, align 4, !dbg !2864
  %84 = sext i32 %83 to i64, !dbg !2863
  %85 = getelementptr inbounds float, ptr %82, i64 %84, !dbg !2863
  %86 = load float, ptr %85, align 4, !dbg !2863
  %87 = load ptr, ptr %5, align 8, !dbg !2865
  %88 = load i32, ptr %9, align 4, !dbg !2866
  %89 = sext i32 %88 to i64, !dbg !2866
  %90 = call noundef nonnull align 4 dereferenceable(60) ptr @_ZNSt6vectorI6recordSaIS0_EEixEm(ptr noundef nonnull align 8 dereferenceable(24) %87, i64 noundef %89) #17, !dbg !2865
  %91 = getelementptr inbounds %struct.record, ptr %90, i32 0, i32 1, !dbg !2867
  store float %86, ptr %91, align 4, !dbg !2868
  br label %92, !dbg !2869

92:                                               ; preds = %45
  %93 = load i32, ptr %9, align 4, !dbg !2870
  %94 = add nsw i32 %93, 1, !dbg !2870
  store i32 %94, ptr %9, align 4, !dbg !2870
  br label %15, !dbg !2871, !llvm.loop !2872

95:                                               ; preds = %15
  ret void, !dbg !2874
}

; Function Attrs: mustprogress noinline nounwind optnone uwtable
define linkonce_odr dso_local noundef nonnull align 4 dereferenceable(60) ptr @_ZNSt6vectorI6recordSaIS0_EEixEm(ptr noundef nonnull align 8 dereferenceable(24) %0, i64 noundef %1) #5 comdat align 2 !dbg !2875 {
  %3 = alloca ptr, align 8
  %4 = alloca i64, align 8
  store ptr %0, ptr %3, align 8
  call void @llvm.dbg.declare(metadata ptr %3, metadata !2876, metadata !DIExpression()), !dbg !2877
  store i64 %1, ptr %4, align 8
  call void @llvm.dbg.declare(metadata ptr %4, metadata !2878, metadata !DIExpression()), !dbg !2879
  %5 = load ptr, ptr %3, align 8
  %6 = getelementptr inbounds %"struct.std::_Vector_base", ptr %5, i32 0, i32 0, !dbg !2880
  %7 = getelementptr inbounds %"struct.std::_Vector_base<record, std::allocator<record>>::_Vector_impl_data", ptr %6, i32 0, i32 0, !dbg !2881
  %8 = load ptr, ptr %7, align 8, !dbg !2881
  %9 = load i64, ptr %4, align 8, !dbg !2882
  %10 = getelementptr inbounds %struct.record, ptr %8, i64 %9, !dbg !2883
  ret ptr %10, !dbg !2884
}

; Function Attrs: nounwind
declare void @free(ptr noundef) #8

declare i32 @cudaFree(ptr noundef) #4

; Function Attrs: mustprogress noinline nounwind optnone uwtable
define linkonce_odr dso_local void @_ZNSt6vectorI7latLongSaIS0_EED2Ev(ptr noundef nonnull align 8 dereferenceable(24) %0) unnamed_addr #5 comdat align 2 personality ptr @__gxx_personality_v0 !dbg !2885 {
  %2 = alloca ptr, align 8
  store ptr %0, ptr %2, align 8
  call void @llvm.dbg.declare(metadata ptr %2, metadata !2886, metadata !DIExpression()), !dbg !2887
  %3 = load ptr, ptr %2, align 8
  %4 = getelementptr inbounds %"struct.std::_Vector_base.1", ptr %3, i32 0, i32 0, !dbg !2888
  %5 = getelementptr inbounds %"struct.std::_Vector_base<latLong, std::allocator<latLong>>::_Vector_impl_data", ptr %4, i32 0, i32 0, !dbg !2890
  %6 = load ptr, ptr %5, align 8, !dbg !2890
  %7 = getelementptr inbounds %"struct.std::_Vector_base.1", ptr %3, i32 0, i32 0, !dbg !2891
  %8 = getelementptr inbounds %"struct.std::_Vector_base<latLong, std::allocator<latLong>>::_Vector_impl_data", ptr %7, i32 0, i32 1, !dbg !2892
  %9 = load ptr, ptr %8, align 8, !dbg !2892
  %10 = call noundef nonnull align 1 dereferenceable(1) ptr @_ZNSt12_Vector_baseI7latLongSaIS0_EE19_M_get_Tp_allocatorEv(ptr noundef nonnull align 8 dereferenceable(24) %3) #17, !dbg !2893
  invoke void @_ZSt8_DestroyIP7latLongS0_EvT_S2_RSaIT0_E(ptr noundef %6, ptr noundef %9, ptr noundef nonnull align 1 dereferenceable(1) %10)
          to label %11 unwind label %12, !dbg !2894

11:                                               ; preds = %1
  call void @_ZNSt12_Vector_baseI7latLongSaIS0_EED2Ev(ptr noundef nonnull align 8 dereferenceable(24) %3) #17, !dbg !2895
  ret void, !dbg !2896

12:                                               ; preds = %1
  %13 = landingpad { ptr, i32 }
          catch ptr null, !dbg !2894
  %14 = extractvalue { ptr, i32 } %13, 0, !dbg !2894
  call void @__clang_call_terminate(ptr %14) #21, !dbg !2894
  unreachable, !dbg !2894
}

; Function Attrs: mustprogress noinline nounwind optnone uwtable
define linkonce_odr dso_local void @_ZNSt6vectorI6recordSaIS0_EED2Ev(ptr noundef nonnull align 8 dereferenceable(24) %0) unnamed_addr #5 comdat align 2 personality ptr @__gxx_personality_v0 !dbg !2897 {
  %2 = alloca ptr, align 8
  store ptr %0, ptr %2, align 8
  call void @llvm.dbg.declare(metadata ptr %2, metadata !2898, metadata !DIExpression()), !dbg !2899
  %3 = load ptr, ptr %2, align 8
  %4 = getelementptr inbounds %"struct.std::_Vector_base", ptr %3, i32 0, i32 0, !dbg !2900
  %5 = getelementptr inbounds %"struct.std::_Vector_base<record, std::allocator<record>>::_Vector_impl_data", ptr %4, i32 0, i32 0, !dbg !2902
  %6 = load ptr, ptr %5, align 8, !dbg !2902
  %7 = getelementptr inbounds %"struct.std::_Vector_base", ptr %3, i32 0, i32 0, !dbg !2903
  %8 = getelementptr inbounds %"struct.std::_Vector_base<record, std::allocator<record>>::_Vector_impl_data", ptr %7, i32 0, i32 1, !dbg !2904
  %9 = load ptr, ptr %8, align 8, !dbg !2904
  %10 = call noundef nonnull align 1 dereferenceable(1) ptr @_ZNSt12_Vector_baseI6recordSaIS0_EE19_M_get_Tp_allocatorEv(ptr noundef nonnull align 8 dereferenceable(24) %3) #17, !dbg !2905
  invoke void @_ZSt8_DestroyIP6recordS0_EvT_S2_RSaIT0_E(ptr noundef %6, ptr noundef %9, ptr noundef nonnull align 1 dereferenceable(1) %10)
          to label %11 unwind label %12, !dbg !2906

11:                                               ; preds = %1
  call void @_ZNSt12_Vector_baseI6recordSaIS0_EED2Ev(ptr noundef nonnull align 8 dereferenceable(24) %3) #17, !dbg !2907
  ret void, !dbg !2908

12:                                               ; preds = %1
  %13 = landingpad { ptr, i32 }
          catch ptr null, !dbg !2906
  %14 = extractvalue { ptr, i32 } %13, 0, !dbg !2906
  call void @__clang_call_terminate(ptr %14) #21, !dbg !2906
  unreachable, !dbg !2906
}

declare ptr @fopen(ptr noundef, ptr noundef) #4

; Function Attrs: nounwind
declare i32 @feof(ptr noundef) #8

declare i32 @__isoc99_fscanf(ptr noundef, ptr noundef, ...) #4

declare i32 @fprintf(ptr noundef, ptr noundef, ...) #4

; Function Attrs: noreturn nounwind
declare void @exit(i32 noundef) #9

declare ptr @fgets(ptr noundef, i32 noundef, ptr noundef) #4

declare i32 @fgetc(ptr noundef) #4

; Function Attrs: nounwind willreturn memory(read)
declare double @atof(ptr noundef) #10

; Function Attrs: mustprogress noinline optnone uwtable
define linkonce_odr dso_local void @_ZNSt6vectorI7latLongSaIS0_EE9push_backERKS0_(ptr noundef nonnull align 8 dereferenceable(24) %0, ptr noundef nonnull align 4 dereferenceable(8) %1) #6 comdat align 2 !dbg !2909 {
  %3 = alloca ptr, align 8
  %4 = alloca ptr, align 8
  %5 = alloca %"class.__gnu_cxx::__normal_iterator", align 8
  store ptr %0, ptr %3, align 8
  call void @llvm.dbg.declare(metadata ptr %3, metadata !2910, metadata !DIExpression()), !dbg !2911
  store ptr %1, ptr %4, align 8
  call void @llvm.dbg.declare(metadata ptr %4, metadata !2912, metadata !DIExpression()), !dbg !2913
  %6 = load ptr, ptr %3, align 8
  %7 = getelementptr inbounds %"struct.std::_Vector_base.1", ptr %6, i32 0, i32 0, !dbg !2914
  %8 = getelementptr inbounds %"struct.std::_Vector_base<latLong, std::allocator<latLong>>::_Vector_impl_data", ptr %7, i32 0, i32 1, !dbg !2916
  %9 = load ptr, ptr %8, align 8, !dbg !2916
  %10 = getelementptr inbounds %"struct.std::_Vector_base.1", ptr %6, i32 0, i32 0, !dbg !2917
  %11 = getelementptr inbounds %"struct.std::_Vector_base<latLong, std::allocator<latLong>>::_Vector_impl_data", ptr %10, i32 0, i32 2, !dbg !2918
  %12 = load ptr, ptr %11, align 8, !dbg !2918
  %13 = icmp ne ptr %9, %12, !dbg !2919
  br i1 %13, label %14, label %24, !dbg !2920

14:                                               ; preds = %2
  %15 = getelementptr inbounds %"struct.std::_Vector_base.1", ptr %6, i32 0, i32 0, !dbg !2921
  %16 = getelementptr inbounds %"struct.std::_Vector_base.1", ptr %6, i32 0, i32 0, !dbg !2923
  %17 = getelementptr inbounds %"struct.std::_Vector_base<latLong, std::allocator<latLong>>::_Vector_impl_data", ptr %16, i32 0, i32 1, !dbg !2924
  %18 = load ptr, ptr %17, align 8, !dbg !2924
  %19 = load ptr, ptr %4, align 8, !dbg !2925
  call void @_ZNSt16allocator_traitsISaI7latLongEE9constructIS0_JRKS0_EEEvRS1_PT_DpOT0_(ptr noundef nonnull align 1 dereferenceable(1) %15, ptr noundef %18, ptr noundef nonnull align 4 dereferenceable(8) %19) #17, !dbg !2926
  %20 = getelementptr inbounds %"struct.std::_Vector_base.1", ptr %6, i32 0, i32 0, !dbg !2927
  %21 = getelementptr inbounds %"struct.std::_Vector_base<latLong, std::allocator<latLong>>::_Vector_impl_data", ptr %20, i32 0, i32 1, !dbg !2928
  %22 = load ptr, ptr %21, align 8, !dbg !2929
  %23 = getelementptr inbounds %struct.latLong, ptr %22, i32 1, !dbg !2929
  store ptr %23, ptr %21, align 8, !dbg !2929
  br label %30, !dbg !2930

24:                                               ; preds = %2
  %25 = call ptr @_ZNSt6vectorI7latLongSaIS0_EE3endEv(ptr noundef nonnull align 8 dereferenceable(24) %6) #17, !dbg !2931
  %26 = getelementptr inbounds %"class.__gnu_cxx::__normal_iterator", ptr %5, i32 0, i32 0, !dbg !2931
  store ptr %25, ptr %26, align 8, !dbg !2931
  %27 = load ptr, ptr %4, align 8, !dbg !2932
  %28 = getelementptr inbounds %"class.__gnu_cxx::__normal_iterator", ptr %5, i32 0, i32 0, !dbg !2933
  %29 = load ptr, ptr %28, align 8, !dbg !2933
  call void @_ZNSt6vectorI7latLongSaIS0_EE17_M_realloc_insertIJRKS0_EEEvN9__gnu_cxx17__normal_iteratorIPS0_S2_EEDpOT_(ptr noundef nonnull align 8 dereferenceable(24) %6, ptr %29, ptr noundef nonnull align 4 dereferenceable(8) %27), !dbg !2933
  br label %30

30:                                               ; preds = %24, %14
  ret void, !dbg !2934
}

; Function Attrs: mustprogress noinline optnone uwtable
define linkonce_odr dso_local void @_ZNSt6vectorI6recordSaIS0_EE9push_backERKS0_(ptr noundef nonnull align 8 dereferenceable(24) %0, ptr noundef nonnull align 4 dereferenceable(60) %1) #6 comdat align 2 !dbg !2935 {
  %3 = alloca ptr, align 8
  %4 = alloca ptr, align 8
  %5 = alloca %"class.__gnu_cxx::__normal_iterator.5", align 8
  store ptr %0, ptr %3, align 8
  call void @llvm.dbg.declare(metadata ptr %3, metadata !2936, metadata !DIExpression()), !dbg !2937
  store ptr %1, ptr %4, align 8
  call void @llvm.dbg.declare(metadata ptr %4, metadata !2938, metadata !DIExpression()), !dbg !2939
  %6 = load ptr, ptr %3, align 8
  %7 = getelementptr inbounds %"struct.std::_Vector_base", ptr %6, i32 0, i32 0, !dbg !2940
  %8 = getelementptr inbounds %"struct.std::_Vector_base<record, std::allocator<record>>::_Vector_impl_data", ptr %7, i32 0, i32 1, !dbg !2942
  %9 = load ptr, ptr %8, align 8, !dbg !2942
  %10 = getelementptr inbounds %"struct.std::_Vector_base", ptr %6, i32 0, i32 0, !dbg !2943
  %11 = getelementptr inbounds %"struct.std::_Vector_base<record, std::allocator<record>>::_Vector_impl_data", ptr %10, i32 0, i32 2, !dbg !2944
  %12 = load ptr, ptr %11, align 8, !dbg !2944
  %13 = icmp ne ptr %9, %12, !dbg !2945
  br i1 %13, label %14, label %24, !dbg !2946

14:                                               ; preds = %2
  %15 = getelementptr inbounds %"struct.std::_Vector_base", ptr %6, i32 0, i32 0, !dbg !2947
  %16 = getelementptr inbounds %"struct.std::_Vector_base", ptr %6, i32 0, i32 0, !dbg !2949
  %17 = getelementptr inbounds %"struct.std::_Vector_base<record, std::allocator<record>>::_Vector_impl_data", ptr %16, i32 0, i32 1, !dbg !2950
  %18 = load ptr, ptr %17, align 8, !dbg !2950
  %19 = load ptr, ptr %4, align 8, !dbg !2951
  call void @_ZNSt16allocator_traitsISaI6recordEE9constructIS0_JRKS0_EEEvRS1_PT_DpOT0_(ptr noundef nonnull align 1 dereferenceable(1) %15, ptr noundef %18, ptr noundef nonnull align 4 dereferenceable(60) %19) #17, !dbg !2952
  %20 = getelementptr inbounds %"struct.std::_Vector_base", ptr %6, i32 0, i32 0, !dbg !2953
  %21 = getelementptr inbounds %"struct.std::_Vector_base<record, std::allocator<record>>::_Vector_impl_data", ptr %20, i32 0, i32 1, !dbg !2954
  %22 = load ptr, ptr %21, align 8, !dbg !2955
  %23 = getelementptr inbounds %struct.record, ptr %22, i32 1, !dbg !2955
  store ptr %23, ptr %21, align 8, !dbg !2955
  br label %30, !dbg !2956

24:                                               ; preds = %2
  %25 = call ptr @_ZNSt6vectorI6recordSaIS0_EE3endEv(ptr noundef nonnull align 8 dereferenceable(24) %6) #17, !dbg !2957
  %26 = getelementptr inbounds %"class.__gnu_cxx::__normal_iterator.5", ptr %5, i32 0, i32 0, !dbg !2957
  store ptr %25, ptr %26, align 8, !dbg !2957
  %27 = load ptr, ptr %4, align 8, !dbg !2958
  %28 = getelementptr inbounds %"class.__gnu_cxx::__normal_iterator.5", ptr %5, i32 0, i32 0, !dbg !2959
  %29 = load ptr, ptr %28, align 8, !dbg !2959
  call void @_ZNSt6vectorI6recordSaIS0_EE17_M_realloc_insertIJRKS0_EEEvN9__gnu_cxx17__normal_iteratorIPS0_S2_EEDpOT_(ptr noundef nonnull align 8 dereferenceable(24) %6, ptr %29, ptr noundef nonnull align 4 dereferenceable(60) %27), !dbg !2959
  br label %30

30:                                               ; preds = %24, %14
  ret void, !dbg !2960
}

declare i32 @fclose(ptr noundef) #4

; Function Attrs: nounwind
declare ptr @strncpy(ptr noundef, ptr noundef, i64 noundef) #8

; Function Attrs: nounwind willreturn memory(read)
declare i32 @atoi(ptr noundef) #10

; Function Attrs: mustprogress noinline nounwind optnone uwtable
define linkonce_odr dso_local void @_ZNSt12_Vector_baseI6recordSaIS0_EEC2Ev(ptr noundef nonnull align 8 dereferenceable(24) %0) unnamed_addr #5 comdat align 2 !dbg !2961 {
  %2 = alloca ptr, align 8
  store ptr %0, ptr %2, align 8
  call void @llvm.dbg.declare(metadata ptr %2, metadata !2962, metadata !DIExpression()), !dbg !2964
  %3 = load ptr, ptr %2, align 8
  %4 = getelementptr inbounds %"struct.std::_Vector_base", ptr %3, i32 0, i32 0, !dbg !2965
  call void @_ZNSt12_Vector_baseI6recordSaIS0_EE12_Vector_implC2Ev(ptr noundef nonnull align 8 dereferenceable(24) %4) #17, !dbg !2965
  ret void, !dbg !2966
}

; Function Attrs: mustprogress noinline nounwind optnone uwtable
define linkonce_odr dso_local void @_ZNSt12_Vector_baseI6recordSaIS0_EE12_Vector_implC2Ev(ptr noundef nonnull align 8 dereferenceable(24) %0) unnamed_addr #5 comdat align 2 !dbg !2967 {
  %2 = alloca ptr, align 8
  store ptr %0, ptr %2, align 8
  call void @llvm.dbg.declare(metadata ptr %2, metadata !2968, metadata !DIExpression()), !dbg !2970
  %3 = load ptr, ptr %2, align 8
  call void @_ZNSaI6recordEC2Ev(ptr noundef nonnull align 1 dereferenceable(1) %3) #17, !dbg !2971
  call void @_ZNSt12_Vector_baseI6recordSaIS0_EE17_Vector_impl_dataC2Ev(ptr noundef nonnull align 8 dereferenceable(24) %3) #17, !dbg !2972
  ret void, !dbg !2973
}

; Function Attrs: alwaysinline mustprogress nounwind uwtable
define linkonce_odr dso_local void @_ZNSaI6recordEC2Ev(ptr noundef nonnull align 1 dereferenceable(1) %0) unnamed_addr #11 comdat align 2 !dbg !2974 {
  %2 = alloca ptr, align 8
  store ptr %0, ptr %2, align 8
  call void @llvm.dbg.declare(metadata ptr %2, metadata !2975, metadata !DIExpression()), !dbg !2977
  %3 = load ptr, ptr %2, align 8
  call void @_ZNSt15__new_allocatorI6recordEC2Ev(ptr noundef nonnull align 1 dereferenceable(1) %3) #17, !dbg !2978
  ret void, !dbg !2979
}

; Function Attrs: mustprogress noinline nounwind optnone uwtable
define linkonce_odr dso_local void @_ZNSt12_Vector_baseI6recordSaIS0_EE17_Vector_impl_dataC2Ev(ptr noundef nonnull align 8 dereferenceable(24) %0) unnamed_addr #5 comdat align 2 !dbg !2980 {
  %2 = alloca ptr, align 8
  store ptr %0, ptr %2, align 8
  call void @llvm.dbg.declare(metadata ptr %2, metadata !2981, metadata !DIExpression()), !dbg !2983
  %3 = load ptr, ptr %2, align 8
  %4 = getelementptr inbounds %"struct.std::_Vector_base<record, std::allocator<record>>::_Vector_impl_data", ptr %3, i32 0, i32 0, !dbg !2984
  store ptr null, ptr %4, align 8, !dbg !2984
  %5 = getelementptr inbounds %"struct.std::_Vector_base<record, std::allocator<record>>::_Vector_impl_data", ptr %3, i32 0, i32 1, !dbg !2985
  store ptr null, ptr %5, align 8, !dbg !2985
  %6 = getelementptr inbounds %"struct.std::_Vector_base<record, std::allocator<record>>::_Vector_impl_data", ptr %3, i32 0, i32 2, !dbg !2986
  store ptr null, ptr %6, align 8, !dbg !2986
  ret void, !dbg !2987
}

; Function Attrs: alwaysinline mustprogress nounwind uwtable
define linkonce_odr dso_local void @_ZNSt15__new_allocatorI6recordEC2Ev(ptr noundef nonnull align 1 dereferenceable(1) %0) unnamed_addr #11 comdat align 2 !dbg !2988 {
  %2 = alloca ptr, align 8
  store ptr %0, ptr %2, align 8
  call void @llvm.dbg.declare(metadata ptr %2, metadata !2989, metadata !DIExpression()), !dbg !2991
  %3 = load ptr, ptr %2, align 8
  ret void, !dbg !2992
}

; Function Attrs: mustprogress noinline nounwind optnone uwtable
define linkonce_odr dso_local void @_ZNSt12_Vector_baseI7latLongSaIS0_EEC2Ev(ptr noundef nonnull align 8 dereferenceable(24) %0) unnamed_addr #5 comdat align 2 !dbg !2993 {
  %2 = alloca ptr, align 8
  store ptr %0, ptr %2, align 8
  call void @llvm.dbg.declare(metadata ptr %2, metadata !2994, metadata !DIExpression()), !dbg !2996
  %3 = load ptr, ptr %2, align 8
  %4 = getelementptr inbounds %"struct.std::_Vector_base.1", ptr %3, i32 0, i32 0, !dbg !2997
  call void @_ZNSt12_Vector_baseI7latLongSaIS0_EE12_Vector_implC2Ev(ptr noundef nonnull align 8 dereferenceable(24) %4) #17, !dbg !2997
  ret void, !dbg !2998
}

; Function Attrs: mustprogress noinline nounwind optnone uwtable
define linkonce_odr dso_local void @_ZNSt12_Vector_baseI7latLongSaIS0_EE12_Vector_implC2Ev(ptr noundef nonnull align 8 dereferenceable(24) %0) unnamed_addr #5 comdat align 2 !dbg !2999 {
  %2 = alloca ptr, align 8
  store ptr %0, ptr %2, align 8
  call void @llvm.dbg.declare(metadata ptr %2, metadata !3000, metadata !DIExpression()), !dbg !3002
  %3 = load ptr, ptr %2, align 8
  call void @_ZNSaI7latLongEC2Ev(ptr noundef nonnull align 1 dereferenceable(1) %3) #17, !dbg !3003
  call void @_ZNSt12_Vector_baseI7latLongSaIS0_EE17_Vector_impl_dataC2Ev(ptr noundef nonnull align 8 dereferenceable(24) %3) #17, !dbg !3004
  ret void, !dbg !3005
}

; Function Attrs: alwaysinline mustprogress nounwind uwtable
define linkonce_odr dso_local void @_ZNSaI7latLongEC2Ev(ptr noundef nonnull align 1 dereferenceable(1) %0) unnamed_addr #11 comdat align 2 !dbg !3006 {
  %2 = alloca ptr, align 8
  store ptr %0, ptr %2, align 8
  call void @llvm.dbg.declare(metadata ptr %2, metadata !3007, metadata !DIExpression()), !dbg !3009
  %3 = load ptr, ptr %2, align 8
  call void @_ZNSt15__new_allocatorI7latLongEC2Ev(ptr noundef nonnull align 1 dereferenceable(1) %3) #17, !dbg !3010
  ret void, !dbg !3011
}

; Function Attrs: mustprogress noinline nounwind optnone uwtable
define linkonce_odr dso_local void @_ZNSt12_Vector_baseI7latLongSaIS0_EE17_Vector_impl_dataC2Ev(ptr noundef nonnull align 8 dereferenceable(24) %0) unnamed_addr #5 comdat align 2 !dbg !3012 {
  %2 = alloca ptr, align 8
  store ptr %0, ptr %2, align 8
  call void @llvm.dbg.declare(metadata ptr %2, metadata !3013, metadata !DIExpression()), !dbg !3015
  %3 = load ptr, ptr %2, align 8
  %4 = getelementptr inbounds %"struct.std::_Vector_base<latLong, std::allocator<latLong>>::_Vector_impl_data", ptr %3, i32 0, i32 0, !dbg !3016
  store ptr null, ptr %4, align 8, !dbg !3016
  %5 = getelementptr inbounds %"struct.std::_Vector_base<latLong, std::allocator<latLong>>::_Vector_impl_data", ptr %3, i32 0, i32 1, !dbg !3017
  store ptr null, ptr %5, align 8, !dbg !3017
  %6 = getelementptr inbounds %"struct.std::_Vector_base<latLong, std::allocator<latLong>>::_Vector_impl_data", ptr %3, i32 0, i32 2, !dbg !3018
  store ptr null, ptr %6, align 8, !dbg !3018
  ret void, !dbg !3019
}

; Function Attrs: alwaysinline mustprogress nounwind uwtable
define linkonce_odr dso_local void @_ZNSt15__new_allocatorI7latLongEC2Ev(ptr noundef nonnull align 1 dereferenceable(1) %0) unnamed_addr #11 comdat align 2 !dbg !3020 {
  %2 = alloca ptr, align 8
  store ptr %0, ptr %2, align 8
  call void @llvm.dbg.declare(metadata ptr %2, metadata !3021, metadata !DIExpression()), !dbg !3023
  %3 = load ptr, ptr %2, align 8
  ret void, !dbg !3024
}

; Function Attrs: alwaysinline mustprogress uwtable
define linkonce_odr dso_local void @_ZSt8_DestroyIP6recordS0_EvT_S2_RSaIT0_E(ptr noundef %0, ptr noundef %1, ptr noundef nonnull align 1 dereferenceable(1) %2) #12 comdat !dbg !3025 {
  %4 = alloca ptr, align 8
  %5 = alloca ptr, align 8
  %6 = alloca ptr, align 8
  store ptr %0, ptr %4, align 8
  call void @llvm.dbg.declare(metadata ptr %4, metadata !3030, metadata !DIExpression()), !dbg !3031
  store ptr %1, ptr %5, align 8
  call void @llvm.dbg.declare(metadata ptr %5, metadata !3032, metadata !DIExpression()), !dbg !3033
  store ptr %2, ptr %6, align 8
  call void @llvm.dbg.declare(metadata ptr %6, metadata !3034, metadata !DIExpression()), !dbg !3035
  %7 = load ptr, ptr %4, align 8, !dbg !3036
  %8 = load ptr, ptr %5, align 8, !dbg !3037
  call void @_ZSt8_DestroyIP6recordEvT_S2_(ptr noundef %7, ptr noundef %8), !dbg !3038
  ret void, !dbg !3039
}

; Function Attrs: mustprogress noinline nounwind optnone uwtable
define linkonce_odr dso_local noundef nonnull align 1 dereferenceable(1) ptr @_ZNSt12_Vector_baseI6recordSaIS0_EE19_M_get_Tp_allocatorEv(ptr noundef nonnull align 8 dereferenceable(24) %0) #5 comdat align 2 !dbg !3040 {
  %2 = alloca ptr, align 8
  store ptr %0, ptr %2, align 8
  call void @llvm.dbg.declare(metadata ptr %2, metadata !3041, metadata !DIExpression()), !dbg !3042
  %3 = load ptr, ptr %2, align 8
  %4 = getelementptr inbounds %"struct.std::_Vector_base", ptr %3, i32 0, i32 0, !dbg !3043
  ret ptr %4, !dbg !3044
}

; Function Attrs: noinline noreturn nounwind uwtable
define linkonce_odr hidden void @__clang_call_terminate(ptr noundef %0) #13 comdat {
  %2 = call ptr @__cxa_begin_catch(ptr %0) #17
  call void @_ZSt9terminatev() #21
  unreachable
}

declare ptr @__cxa_begin_catch(ptr)

declare void @_ZSt9terminatev()

; Function Attrs: mustprogress noinline nounwind optnone uwtable
define linkonce_odr dso_local void @_ZNSt12_Vector_baseI6recordSaIS0_EED2Ev(ptr noundef nonnull align 8 dereferenceable(24) %0) unnamed_addr #5 comdat align 2 personality ptr @__gxx_personality_v0 !dbg !3045 {
  %2 = alloca ptr, align 8
  store ptr %0, ptr %2, align 8
  call void @llvm.dbg.declare(metadata ptr %2, metadata !3046, metadata !DIExpression()), !dbg !3047
  %3 = load ptr, ptr %2, align 8
  %4 = getelementptr inbounds %"struct.std::_Vector_base", ptr %3, i32 0, i32 0, !dbg !3048
  %5 = getelementptr inbounds %"struct.std::_Vector_base<record, std::allocator<record>>::_Vector_impl_data", ptr %4, i32 0, i32 0, !dbg !3050
  %6 = load ptr, ptr %5, align 8, !dbg !3050
  %7 = getelementptr inbounds %"struct.std::_Vector_base", ptr %3, i32 0, i32 0, !dbg !3051
  %8 = getelementptr inbounds %"struct.std::_Vector_base<record, std::allocator<record>>::_Vector_impl_data", ptr %7, i32 0, i32 2, !dbg !3052
  %9 = load ptr, ptr %8, align 8, !dbg !3052
  %10 = getelementptr inbounds %"struct.std::_Vector_base", ptr %3, i32 0, i32 0, !dbg !3053
  %11 = getelementptr inbounds %"struct.std::_Vector_base<record, std::allocator<record>>::_Vector_impl_data", ptr %10, i32 0, i32 0, !dbg !3054
  %12 = load ptr, ptr %11, align 8, !dbg !3054
  %13 = ptrtoint ptr %9 to i64, !dbg !3055
  %14 = ptrtoint ptr %12 to i64, !dbg !3055
  %15 = sub i64 %13, %14, !dbg !3055
  %16 = sdiv exact i64 %15, 60, !dbg !3055
  invoke void @_ZNSt12_Vector_baseI6recordSaIS0_EE13_M_deallocateEPS0_m(ptr noundef nonnull align 8 dereferenceable(24) %3, ptr noundef %6, i64 noundef %16)
          to label %17 unwind label %19, !dbg !3056

17:                                               ; preds = %1
  %18 = getelementptr inbounds %"struct.std::_Vector_base", ptr %3, i32 0, i32 0, !dbg !3057
  call void @_ZNSt12_Vector_baseI6recordSaIS0_EE12_Vector_implD2Ev(ptr noundef nonnull align 8 dereferenceable(24) %18) #17, !dbg !3057
  ret void, !dbg !3058

19:                                               ; preds = %1
  %20 = landingpad { ptr, i32 }
          catch ptr null, !dbg !3056
  %21 = extractvalue { ptr, i32 } %20, 0, !dbg !3056
  call void @__clang_call_terminate(ptr %21) #21, !dbg !3056
  unreachable, !dbg !3056
}

; Function Attrs: mustprogress noinline optnone uwtable
define linkonce_odr dso_local void @_ZSt8_DestroyIP6recordEvT_S2_(ptr noundef %0, ptr noundef %1) #6 comdat !dbg !3059 {
  %3 = alloca ptr, align 8
  %4 = alloca ptr, align 8
  store ptr %0, ptr %3, align 8
  call void @llvm.dbg.declare(metadata ptr %3, metadata !3064, metadata !DIExpression()), !dbg !3065
  store ptr %1, ptr %4, align 8
  call void @llvm.dbg.declare(metadata ptr %4, metadata !3066, metadata !DIExpression()), !dbg !3067
  %5 = load ptr, ptr %3, align 8, !dbg !3068
  %6 = load ptr, ptr %4, align 8, !dbg !3069
  call void @_ZNSt12_Destroy_auxILb1EE9__destroyIP6recordEEvT_S4_(ptr noundef %5, ptr noundef %6), !dbg !3070
  ret void, !dbg !3071
}

; Function Attrs: mustprogress noinline nounwind optnone uwtable
define linkonce_odr dso_local void @_ZNSt12_Destroy_auxILb1EE9__destroyIP6recordEEvT_S4_(ptr noundef %0, ptr noundef %1) #5 comdat align 2 !dbg !3072 {
  %3 = alloca ptr, align 8
  %4 = alloca ptr, align 8
  store ptr %0, ptr %3, align 8
  call void @llvm.dbg.declare(metadata ptr %3, metadata !3077, metadata !DIExpression()), !dbg !3078
  store ptr %1, ptr %4, align 8
  call void @llvm.dbg.declare(metadata ptr %4, metadata !3079, metadata !DIExpression()), !dbg !3080
  ret void, !dbg !3081
}

; Function Attrs: mustprogress noinline optnone uwtable
define linkonce_odr dso_local void @_ZNSt12_Vector_baseI6recordSaIS0_EE13_M_deallocateEPS0_m(ptr noundef nonnull align 8 dereferenceable(24) %0, ptr noundef %1, i64 noundef %2) #6 comdat align 2 !dbg !3082 {
  %4 = alloca ptr, align 8
  %5 = alloca ptr, align 8
  %6 = alloca i64, align 8
  store ptr %0, ptr %4, align 8
  call void @llvm.dbg.declare(metadata ptr %4, metadata !3083, metadata !DIExpression()), !dbg !3084
  store ptr %1, ptr %5, align 8
  call void @llvm.dbg.declare(metadata ptr %5, metadata !3085, metadata !DIExpression()), !dbg !3086
  store i64 %2, ptr %6, align 8
  call void @llvm.dbg.declare(metadata ptr %6, metadata !3087, metadata !DIExpression()), !dbg !3088
  %7 = load ptr, ptr %4, align 8
  %8 = load ptr, ptr %5, align 8, !dbg !3089
  %9 = icmp ne ptr %8, null, !dbg !3089
  br i1 %9, label %10, label %14, !dbg !3091

10:                                               ; preds = %3
  %11 = getelementptr inbounds %"struct.std::_Vector_base", ptr %7, i32 0, i32 0, !dbg !3092
  %12 = load ptr, ptr %5, align 8, !dbg !3093
  %13 = load i64, ptr %6, align 8, !dbg !3094
  call void @_ZNSt16allocator_traitsISaI6recordEE10deallocateERS1_PS0_m(ptr noundef nonnull align 1 dereferenceable(1) %11, ptr noundef %12, i64 noundef %13), !dbg !3095
  br label %14, !dbg !3095

14:                                               ; preds = %10, %3
  ret void, !dbg !3096
}

; Function Attrs: mustprogress noinline nounwind optnone uwtable
define linkonce_odr dso_local void @_ZNSt12_Vector_baseI6recordSaIS0_EE12_Vector_implD2Ev(ptr noundef nonnull align 8 dereferenceable(24) %0) unnamed_addr #5 comdat align 2 !dbg !3097 {
  %2 = alloca ptr, align 8
  store ptr %0, ptr %2, align 8
  call void @llvm.dbg.declare(metadata ptr %2, metadata !3099, metadata !DIExpression()), !dbg !3100
  %3 = load ptr, ptr %2, align 8
  call void @_ZNSaI6recordED2Ev(ptr noundef nonnull align 1 dereferenceable(1) %3) #17, !dbg !3101
  ret void, !dbg !3103
}

; Function Attrs: alwaysinline mustprogress uwtable
define linkonce_odr dso_local void @_ZNSt16allocator_traitsISaI6recordEE10deallocateERS1_PS0_m(ptr noundef nonnull align 1 dereferenceable(1) %0, ptr noundef %1, i64 noundef %2) #12 comdat align 2 !dbg !3104 {
  %4 = alloca ptr, align 8
  %5 = alloca ptr, align 8
  %6 = alloca i64, align 8
  store ptr %0, ptr %4, align 8
  call void @llvm.dbg.declare(metadata ptr %4, metadata !3105, metadata !DIExpression()), !dbg !3106
  store ptr %1, ptr %5, align 8
  call void @llvm.dbg.declare(metadata ptr %5, metadata !3107, metadata !DIExpression()), !dbg !3108
  store i64 %2, ptr %6, align 8
  call void @llvm.dbg.declare(metadata ptr %6, metadata !3109, metadata !DIExpression()), !dbg !3110
  %7 = load ptr, ptr %4, align 8, !dbg !3111
  %8 = load ptr, ptr %5, align 8, !dbg !3112
  %9 = load i64, ptr %6, align 8, !dbg !3113
  call void @_ZNSt15__new_allocatorI6recordE10deallocateEPS0_m(ptr noundef nonnull align 1 dereferenceable(1) %7, ptr noundef %8, i64 noundef %9), !dbg !3114
  ret void, !dbg !3115
}

; Function Attrs: mustprogress noinline nounwind optnone uwtable
define linkonce_odr dso_local void @_ZNSt15__new_allocatorI6recordE10deallocateEPS0_m(ptr noundef nonnull align 1 dereferenceable(1) %0, ptr noundef %1, i64 noundef %2) #5 comdat align 2 !dbg !3116 {
  %4 = alloca ptr, align 8
  %5 = alloca ptr, align 8
  %6 = alloca i64, align 8
  store ptr %0, ptr %4, align 8
  call void @llvm.dbg.declare(metadata ptr %4, metadata !3117, metadata !DIExpression()), !dbg !3118
  store ptr %1, ptr %5, align 8
  call void @llvm.dbg.declare(metadata ptr %5, metadata !3119, metadata !DIExpression()), !dbg !3120
  store i64 %2, ptr %6, align 8
  call void @llvm.dbg.declare(metadata ptr %6, metadata !3121, metadata !DIExpression()), !dbg !3122
  %7 = load ptr, ptr %4, align 8
  %8 = load ptr, ptr %5, align 8, !dbg !3123
  call void @_ZdlPv(ptr noundef %8) #22, !dbg !3124
  ret void, !dbg !3125
}

; Function Attrs: nobuiltin nounwind
declare void @_ZdlPv(ptr noundef) #14

; Function Attrs: alwaysinline mustprogress nounwind uwtable
define linkonce_odr dso_local void @_ZNSaI6recordED2Ev(ptr noundef nonnull align 1 dereferenceable(1) %0) unnamed_addr #11 comdat align 2 !dbg !3126 {
  %2 = alloca ptr, align 8
  store ptr %0, ptr %2, align 8
  call void @llvm.dbg.declare(metadata ptr %2, metadata !3127, metadata !DIExpression()), !dbg !3128
  %3 = load ptr, ptr %2, align 8
  call void @_ZNSt15__new_allocatorI6recordED2Ev(ptr noundef nonnull align 1 dereferenceable(1) %3) #17, !dbg !3129
  ret void, !dbg !3131
}

; Function Attrs: mustprogress noinline nounwind optnone uwtable
define linkonce_odr dso_local void @_ZNSt15__new_allocatorI6recordED2Ev(ptr noundef nonnull align 1 dereferenceable(1) %0) unnamed_addr #5 comdat align 2 !dbg !3132 {
  %2 = alloca ptr, align 8
  store ptr %0, ptr %2, align 8
  call void @llvm.dbg.declare(metadata ptr %2, metadata !3133, metadata !DIExpression()), !dbg !3134
  %3 = load ptr, ptr %2, align 8
  ret void, !dbg !3135
}

; Function Attrs: alwaysinline mustprogress uwtable
define linkonce_odr dso_local void @_ZSt8_DestroyIP7latLongS0_EvT_S2_RSaIT0_E(ptr noundef %0, ptr noundef %1, ptr noundef nonnull align 1 dereferenceable(1) %2) #12 comdat !dbg !3136 {
  %4 = alloca ptr, align 8
  %5 = alloca ptr, align 8
  %6 = alloca ptr, align 8
  store ptr %0, ptr %4, align 8
  call void @llvm.dbg.declare(metadata ptr %4, metadata !3141, metadata !DIExpression()), !dbg !3142
  store ptr %1, ptr %5, align 8
  call void @llvm.dbg.declare(metadata ptr %5, metadata !3143, metadata !DIExpression()), !dbg !3144
  store ptr %2, ptr %6, align 8
  call void @llvm.dbg.declare(metadata ptr %6, metadata !3145, metadata !DIExpression()), !dbg !3146
  %7 = load ptr, ptr %4, align 8, !dbg !3147
  %8 = load ptr, ptr %5, align 8, !dbg !3148
  call void @_ZSt8_DestroyIP7latLongEvT_S2_(ptr noundef %7, ptr noundef %8), !dbg !3149
  ret void, !dbg !3150
}

; Function Attrs: mustprogress noinline nounwind optnone uwtable
define linkonce_odr dso_local noundef nonnull align 1 dereferenceable(1) ptr @_ZNSt12_Vector_baseI7latLongSaIS0_EE19_M_get_Tp_allocatorEv(ptr noundef nonnull align 8 dereferenceable(24) %0) #5 comdat align 2 !dbg !3151 {
  %2 = alloca ptr, align 8
  store ptr %0, ptr %2, align 8
  call void @llvm.dbg.declare(metadata ptr %2, metadata !3152, metadata !DIExpression()), !dbg !3153
  %3 = load ptr, ptr %2, align 8
  %4 = getelementptr inbounds %"struct.std::_Vector_base.1", ptr %3, i32 0, i32 0, !dbg !3154
  ret ptr %4, !dbg !3155
}

; Function Attrs: mustprogress noinline nounwind optnone uwtable
define linkonce_odr dso_local void @_ZNSt12_Vector_baseI7latLongSaIS0_EED2Ev(ptr noundef nonnull align 8 dereferenceable(24) %0) unnamed_addr #5 comdat align 2 personality ptr @__gxx_personality_v0 !dbg !3156 {
  %2 = alloca ptr, align 8
  store ptr %0, ptr %2, align 8
  call void @llvm.dbg.declare(metadata ptr %2, metadata !3157, metadata !DIExpression()), !dbg !3158
  %3 = load ptr, ptr %2, align 8
  %4 = getelementptr inbounds %"struct.std::_Vector_base.1", ptr %3, i32 0, i32 0, !dbg !3159
  %5 = getelementptr inbounds %"struct.std::_Vector_base<latLong, std::allocator<latLong>>::_Vector_impl_data", ptr %4, i32 0, i32 0, !dbg !3161
  %6 = load ptr, ptr %5, align 8, !dbg !3161
  %7 = getelementptr inbounds %"struct.std::_Vector_base.1", ptr %3, i32 0, i32 0, !dbg !3162
  %8 = getelementptr inbounds %"struct.std::_Vector_base<latLong, std::allocator<latLong>>::_Vector_impl_data", ptr %7, i32 0, i32 2, !dbg !3163
  %9 = load ptr, ptr %8, align 8, !dbg !3163
  %10 = getelementptr inbounds %"struct.std::_Vector_base.1", ptr %3, i32 0, i32 0, !dbg !3164
  %11 = getelementptr inbounds %"struct.std::_Vector_base<latLong, std::allocator<latLong>>::_Vector_impl_data", ptr %10, i32 0, i32 0, !dbg !3165
  %12 = load ptr, ptr %11, align 8, !dbg !3165
  %13 = ptrtoint ptr %9 to i64, !dbg !3166
  %14 = ptrtoint ptr %12 to i64, !dbg !3166
  %15 = sub i64 %13, %14, !dbg !3166
  %16 = sdiv exact i64 %15, 8, !dbg !3166
  invoke void @_ZNSt12_Vector_baseI7latLongSaIS0_EE13_M_deallocateEPS0_m(ptr noundef nonnull align 8 dereferenceable(24) %3, ptr noundef %6, i64 noundef %16)
          to label %17 unwind label %19, !dbg !3167

17:                                               ; preds = %1
  %18 = getelementptr inbounds %"struct.std::_Vector_base.1", ptr %3, i32 0, i32 0, !dbg !3168
  call void @_ZNSt12_Vector_baseI7latLongSaIS0_EE12_Vector_implD2Ev(ptr noundef nonnull align 8 dereferenceable(24) %18) #17, !dbg !3168
  ret void, !dbg !3169

19:                                               ; preds = %1
  %20 = landingpad { ptr, i32 }
          catch ptr null, !dbg !3167
  %21 = extractvalue { ptr, i32 } %20, 0, !dbg !3167
  call void @__clang_call_terminate(ptr %21) #21, !dbg !3167
  unreachable, !dbg !3167
}

; Function Attrs: mustprogress noinline optnone uwtable
define linkonce_odr dso_local void @_ZSt8_DestroyIP7latLongEvT_S2_(ptr noundef %0, ptr noundef %1) #6 comdat !dbg !3170 {
  %3 = alloca ptr, align 8
  %4 = alloca ptr, align 8
  store ptr %0, ptr %3, align 8
  call void @llvm.dbg.declare(metadata ptr %3, metadata !3174, metadata !DIExpression()), !dbg !3175
  store ptr %1, ptr %4, align 8
  call void @llvm.dbg.declare(metadata ptr %4, metadata !3176, metadata !DIExpression()), !dbg !3177
  %5 = load ptr, ptr %3, align 8, !dbg !3178
  %6 = load ptr, ptr %4, align 8, !dbg !3179
  call void @_ZNSt12_Destroy_auxILb1EE9__destroyIP7latLongEEvT_S4_(ptr noundef %5, ptr noundef %6), !dbg !3180
  ret void, !dbg !3181
}

; Function Attrs: mustprogress noinline nounwind optnone uwtable
define linkonce_odr dso_local void @_ZNSt12_Destroy_auxILb1EE9__destroyIP7latLongEEvT_S4_(ptr noundef %0, ptr noundef %1) #5 comdat align 2 !dbg !3182 {
  %3 = alloca ptr, align 8
  %4 = alloca ptr, align 8
  store ptr %0, ptr %3, align 8
  call void @llvm.dbg.declare(metadata ptr %3, metadata !3184, metadata !DIExpression()), !dbg !3185
  store ptr %1, ptr %4, align 8
  call void @llvm.dbg.declare(metadata ptr %4, metadata !3186, metadata !DIExpression()), !dbg !3187
  ret void, !dbg !3188
}

; Function Attrs: mustprogress noinline optnone uwtable
define linkonce_odr dso_local void @_ZNSt12_Vector_baseI7latLongSaIS0_EE13_M_deallocateEPS0_m(ptr noundef nonnull align 8 dereferenceable(24) %0, ptr noundef %1, i64 noundef %2) #6 comdat align 2 !dbg !3189 {
  %4 = alloca ptr, align 8
  %5 = alloca ptr, align 8
  %6 = alloca i64, align 8
  store ptr %0, ptr %4, align 8
  call void @llvm.dbg.declare(metadata ptr %4, metadata !3190, metadata !DIExpression()), !dbg !3191
  store ptr %1, ptr %5, align 8
  call void @llvm.dbg.declare(metadata ptr %5, metadata !3192, metadata !DIExpression()), !dbg !3193
  store i64 %2, ptr %6, align 8
  call void @llvm.dbg.declare(metadata ptr %6, metadata !3194, metadata !DIExpression()), !dbg !3195
  %7 = load ptr, ptr %4, align 8
  %8 = load ptr, ptr %5, align 8, !dbg !3196
  %9 = icmp ne ptr %8, null, !dbg !3196
  br i1 %9, label %10, label %14, !dbg !3198

10:                                               ; preds = %3
  %11 = getelementptr inbounds %"struct.std::_Vector_base.1", ptr %7, i32 0, i32 0, !dbg !3199
  %12 = load ptr, ptr %5, align 8, !dbg !3200
  %13 = load i64, ptr %6, align 8, !dbg !3201
  call void @_ZNSt16allocator_traitsISaI7latLongEE10deallocateERS1_PS0_m(ptr noundef nonnull align 1 dereferenceable(1) %11, ptr noundef %12, i64 noundef %13), !dbg !3202
  br label %14, !dbg !3202

14:                                               ; preds = %10, %3
  ret void, !dbg !3203
}

; Function Attrs: mustprogress noinline nounwind optnone uwtable
define linkonce_odr dso_local void @_ZNSt12_Vector_baseI7latLongSaIS0_EE12_Vector_implD2Ev(ptr noundef nonnull align 8 dereferenceable(24) %0) unnamed_addr #5 comdat align 2 !dbg !3204 {
  %2 = alloca ptr, align 8
  store ptr %0, ptr %2, align 8
  call void @llvm.dbg.declare(metadata ptr %2, metadata !3206, metadata !DIExpression()), !dbg !3207
  %3 = load ptr, ptr %2, align 8
  call void @_ZNSaI7latLongED2Ev(ptr noundef nonnull align 1 dereferenceable(1) %3) #17, !dbg !3208
  ret void, !dbg !3210
}

; Function Attrs: alwaysinline mustprogress uwtable
define linkonce_odr dso_local void @_ZNSt16allocator_traitsISaI7latLongEE10deallocateERS1_PS0_m(ptr noundef nonnull align 1 dereferenceable(1) %0, ptr noundef %1, i64 noundef %2) #12 comdat align 2 !dbg !3211 {
  %4 = alloca ptr, align 8
  %5 = alloca ptr, align 8
  %6 = alloca i64, align 8
  store ptr %0, ptr %4, align 8
  call void @llvm.dbg.declare(metadata ptr %4, metadata !3212, metadata !DIExpression()), !dbg !3213
  store ptr %1, ptr %5, align 8
  call void @llvm.dbg.declare(metadata ptr %5, metadata !3214, metadata !DIExpression()), !dbg !3215
  store i64 %2, ptr %6, align 8
  call void @llvm.dbg.declare(metadata ptr %6, metadata !3216, metadata !DIExpression()), !dbg !3217
  %7 = load ptr, ptr %4, align 8, !dbg !3218
  %8 = load ptr, ptr %5, align 8, !dbg !3219
  %9 = load i64, ptr %6, align 8, !dbg !3220
  call void @_ZNSt15__new_allocatorI7latLongE10deallocateEPS0_m(ptr noundef nonnull align 1 dereferenceable(1) %7, ptr noundef %8, i64 noundef %9), !dbg !3221
  ret void, !dbg !3222
}

; Function Attrs: mustprogress noinline nounwind optnone uwtable
define linkonce_odr dso_local void @_ZNSt15__new_allocatorI7latLongE10deallocateEPS0_m(ptr noundef nonnull align 1 dereferenceable(1) %0, ptr noundef %1, i64 noundef %2) #5 comdat align 2 !dbg !3223 {
  %4 = alloca ptr, align 8
  %5 = alloca ptr, align 8
  %6 = alloca i64, align 8
  store ptr %0, ptr %4, align 8
  call void @llvm.dbg.declare(metadata ptr %4, metadata !3224, metadata !DIExpression()), !dbg !3225
  store ptr %1, ptr %5, align 8
  call void @llvm.dbg.declare(metadata ptr %5, metadata !3226, metadata !DIExpression()), !dbg !3227
  store i64 %2, ptr %6, align 8
  call void @llvm.dbg.declare(metadata ptr %6, metadata !3228, metadata !DIExpression()), !dbg !3229
  %7 = load ptr, ptr %4, align 8
  %8 = load ptr, ptr %5, align 8, !dbg !3230
  call void @_ZdlPv(ptr noundef %8) #22, !dbg !3231
  ret void, !dbg !3232
}

; Function Attrs: alwaysinline mustprogress nounwind uwtable
define linkonce_odr dso_local void @_ZNSaI7latLongED2Ev(ptr noundef nonnull align 1 dereferenceable(1) %0) unnamed_addr #11 comdat align 2 !dbg !3233 {
  %2 = alloca ptr, align 8
  store ptr %0, ptr %2, align 8
  call void @llvm.dbg.declare(metadata ptr %2, metadata !3234, metadata !DIExpression()), !dbg !3235
  %3 = load ptr, ptr %2, align 8
  call void @_ZNSt15__new_allocatorI7latLongED2Ev(ptr noundef nonnull align 1 dereferenceable(1) %3) #17, !dbg !3236
  ret void, !dbg !3238
}

; Function Attrs: mustprogress noinline nounwind optnone uwtable
define linkonce_odr dso_local void @_ZNSt15__new_allocatorI7latLongED2Ev(ptr noundef nonnull align 1 dereferenceable(1) %0) unnamed_addr #5 comdat align 2 !dbg !3239 {
  %2 = alloca ptr, align 8
  store ptr %0, ptr %2, align 8
  call void @llvm.dbg.declare(metadata ptr %2, metadata !3240, metadata !DIExpression()), !dbg !3241
  %3 = load ptr, ptr %2, align 8
  ret void, !dbg !3242
}

; Function Attrs: alwaysinline mustprogress nounwind uwtable
define linkonce_odr dso_local void @_ZNSt16allocator_traitsISaI7latLongEE9constructIS0_JRKS0_EEEvRS1_PT_DpOT0_(ptr noundef nonnull align 1 dereferenceable(1) %0, ptr noundef %1, ptr noundef nonnull align 4 dereferenceable(8) %2) #11 comdat align 2 !dbg !3243 {
  %4 = alloca ptr, align 8
  %5 = alloca ptr, align 8
  %6 = alloca ptr, align 8
  store ptr %0, ptr %4, align 8
  call void @llvm.dbg.declare(metadata ptr %4, metadata !3252, metadata !DIExpression()), !dbg !3253
  store ptr %1, ptr %5, align 8
  call void @llvm.dbg.declare(metadata ptr %5, metadata !3254, metadata !DIExpression()), !dbg !3255
  store ptr %2, ptr %6, align 8
  call void @llvm.dbg.declare(metadata ptr %6, metadata !3256, metadata !DIExpression()), !dbg !3257
  %7 = load ptr, ptr %4, align 8, !dbg !3258
  %8 = load ptr, ptr %5, align 8, !dbg !3259
  %9 = load ptr, ptr %6, align 8, !dbg !3260
  call void @_ZNSt15__new_allocatorI7latLongE9constructIS0_JRKS0_EEEvPT_DpOT0_(ptr noundef nonnull align 1 dereferenceable(1) %7, ptr noundef %8, ptr noundef nonnull align 4 dereferenceable(8) %9) #17, !dbg !3261
  ret void, !dbg !3262
}

; Function Attrs: mustprogress noinline optnone uwtable
define linkonce_odr dso_local void @_ZNSt6vectorI7latLongSaIS0_EE17_M_realloc_insertIJRKS0_EEEvN9__gnu_cxx17__normal_iteratorIPS0_S2_EEDpOT_(ptr noundef nonnull align 8 dereferenceable(24) %0, ptr %1, ptr noundef nonnull align 4 dereferenceable(8) %2) #6 comdat align 2 !dbg !3263 {
  %4 = alloca %"class.__gnu_cxx::__normal_iterator", align 8
  %5 = alloca ptr, align 8
  %6 = alloca ptr, align 8
  %7 = alloca i64, align 8
  %8 = alloca ptr, align 8
  %9 = alloca ptr, align 8
  %10 = alloca i64, align 8
  %11 = alloca %"class.__gnu_cxx::__normal_iterator", align 8
  %12 = alloca ptr, align 8
  %13 = alloca ptr, align 8
  %14 = getelementptr inbounds %"class.__gnu_cxx::__normal_iterator", ptr %4, i32 0, i32 0
  store ptr %1, ptr %14, align 8
  store ptr %0, ptr %5, align 8
  call void @llvm.dbg.declare(metadata ptr %5, metadata !3268, metadata !DIExpression()), !dbg !3269
  call void @llvm.dbg.declare(metadata ptr %4, metadata !3270, metadata !DIExpression()), !dbg !3271
  store ptr %2, ptr %6, align 8
  call void @llvm.dbg.declare(metadata ptr %6, metadata !3272, metadata !DIExpression()), !dbg !3273
  %15 = load ptr, ptr %5, align 8
  call void @llvm.dbg.declare(metadata ptr %7, metadata !3274, metadata !DIExpression()), !dbg !3276
  %16 = call noundef i64 @_ZNKSt6vectorI7latLongSaIS0_EE12_M_check_lenEmPKc(ptr noundef nonnull align 8 dereferenceable(24) %15, i64 noundef 1, ptr noundef @.str.31), !dbg !3277
  store i64 %16, ptr %7, align 8, !dbg !3276
  call void @llvm.dbg.declare(metadata ptr %8, metadata !3278, metadata !DIExpression()), !dbg !3279
  %17 = getelementptr inbounds %"struct.std::_Vector_base.1", ptr %15, i32 0, i32 0, !dbg !3280
  %18 = getelementptr inbounds %"struct.std::_Vector_base<latLong, std::allocator<latLong>>::_Vector_impl_data", ptr %17, i32 0, i32 0, !dbg !3281
  %19 = load ptr, ptr %18, align 8, !dbg !3281
  store ptr %19, ptr %8, align 8, !dbg !3279
  call void @llvm.dbg.declare(metadata ptr %9, metadata !3282, metadata !DIExpression()), !dbg !3283
  %20 = getelementptr inbounds %"struct.std::_Vector_base.1", ptr %15, i32 0, i32 0, !dbg !3284
  %21 = getelementptr inbounds %"struct.std::_Vector_base<latLong, std::allocator<latLong>>::_Vector_impl_data", ptr %20, i32 0, i32 1, !dbg !3285
  %22 = load ptr, ptr %21, align 8, !dbg !3285
  store ptr %22, ptr %9, align 8, !dbg !3283
  call void @llvm.dbg.declare(metadata ptr %10, metadata !3286, metadata !DIExpression()), !dbg !3287
  %23 = call ptr @_ZNSt6vectorI7latLongSaIS0_EE5beginEv(ptr noundef nonnull align 8 dereferenceable(24) %15) #17, !dbg !3288
  %24 = getelementptr inbounds %"class.__gnu_cxx::__normal_iterator", ptr %11, i32 0, i32 0, !dbg !3288
  store ptr %23, ptr %24, align 8, !dbg !3288
  %25 = call noundef i64 @_ZN9__gnu_cxxmiIP7latLongSt6vectorIS1_SaIS1_EEEENS_17__normal_iteratorIT_T0_E15difference_typeERKS9_SC_(ptr noundef nonnull align 8 dereferenceable(8) %4, ptr noundef nonnull align 8 dereferenceable(8) %11) #17, !dbg !3289
  store i64 %25, ptr %10, align 8, !dbg !3287
  call void @llvm.dbg.declare(metadata ptr %12, metadata !3290, metadata !DIExpression()), !dbg !3291
  %26 = load i64, ptr %7, align 8, !dbg !3292
  %27 = call noundef ptr @_ZNSt12_Vector_baseI7latLongSaIS0_EE11_M_allocateEm(ptr noundef nonnull align 8 dereferenceable(24) %15, i64 noundef %26), !dbg !3293
  store ptr %27, ptr %12, align 8, !dbg !3291
  call void @llvm.dbg.declare(metadata ptr %13, metadata !3294, metadata !DIExpression()), !dbg !3295
  %28 = load ptr, ptr %12, align 8, !dbg !3296
  store ptr %28, ptr %13, align 8, !dbg !3295
  %29 = getelementptr inbounds %"struct.std::_Vector_base.1", ptr %15, i32 0, i32 0, !dbg !3297
  %30 = load ptr, ptr %12, align 8, !dbg !3299
  %31 = load i64, ptr %10, align 8, !dbg !3300
  %32 = getelementptr inbounds %struct.latLong, ptr %30, i64 %31, !dbg !3301
  %33 = load ptr, ptr %6, align 8, !dbg !3302
  call void @_ZNSt16allocator_traitsISaI7latLongEE9constructIS0_JRKS0_EEEvRS1_PT_DpOT0_(ptr noundef nonnull align 1 dereferenceable(1) %29, ptr noundef %32, ptr noundef nonnull align 4 dereferenceable(8) %33) #17, !dbg !3303
  store ptr null, ptr %13, align 8, !dbg !3304
  %34 = load ptr, ptr %8, align 8, !dbg !3305
  %35 = call noundef nonnull align 8 dereferenceable(8) ptr @_ZNK9__gnu_cxx17__normal_iteratorIP7latLongSt6vectorIS1_SaIS1_EEE4baseEv(ptr noundef nonnull align 8 dereferenceable(8) %4) #17, !dbg !3308
  %36 = load ptr, ptr %35, align 8, !dbg !3308
  %37 = load ptr, ptr %12, align 8, !dbg !3309
  %38 = call noundef nonnull align 1 dereferenceable(1) ptr @_ZNSt12_Vector_baseI7latLongSaIS0_EE19_M_get_Tp_allocatorEv(ptr noundef nonnull align 8 dereferenceable(24) %15) #17, !dbg !3310
  %39 = call noundef ptr @_ZNSt6vectorI7latLongSaIS0_EE11_S_relocateEPS0_S3_S3_RS1_(ptr noundef %34, ptr noundef %36, ptr noundef %37, ptr noundef nonnull align 1 dereferenceable(1) %38) #17, !dbg !3311
  store ptr %39, ptr %13, align 8, !dbg !3312
  %40 = load ptr, ptr %13, align 8, !dbg !3313
  %41 = getelementptr inbounds %struct.latLong, ptr %40, i32 1, !dbg !3313
  store ptr %41, ptr %13, align 8, !dbg !3313
  %42 = call noundef nonnull align 8 dereferenceable(8) ptr @_ZNK9__gnu_cxx17__normal_iteratorIP7latLongSt6vectorIS1_SaIS1_EEE4baseEv(ptr noundef nonnull align 8 dereferenceable(8) %4) #17, !dbg !3314
  %43 = load ptr, ptr %42, align 8, !dbg !3314
  %44 = load ptr, ptr %9, align 8, !dbg !3315
  %45 = load ptr, ptr %13, align 8, !dbg !3316
  %46 = call noundef nonnull align 1 dereferenceable(1) ptr @_ZNSt12_Vector_baseI7latLongSaIS0_EE19_M_get_Tp_allocatorEv(ptr noundef nonnull align 8 dereferenceable(24) %15) #17, !dbg !3317
  %47 = call noundef ptr @_ZNSt6vectorI7latLongSaIS0_EE11_S_relocateEPS0_S3_S3_RS1_(ptr noundef %43, ptr noundef %44, ptr noundef %45, ptr noundef nonnull align 1 dereferenceable(1) %46) #17, !dbg !3318
  store ptr %47, ptr %13, align 8, !dbg !3319
  %48 = load ptr, ptr %8, align 8, !dbg !3320
  %49 = getelementptr inbounds %"struct.std::_Vector_base.1", ptr %15, i32 0, i32 0, !dbg !3321
  %50 = getelementptr inbounds %"struct.std::_Vector_base<latLong, std::allocator<latLong>>::_Vector_impl_data", ptr %49, i32 0, i32 2, !dbg !3322
  %51 = load ptr, ptr %50, align 8, !dbg !3322
  %52 = load ptr, ptr %8, align 8, !dbg !3323
  %53 = ptrtoint ptr %51 to i64, !dbg !3324
  %54 = ptrtoint ptr %52 to i64, !dbg !3324
  %55 = sub i64 %53, %54, !dbg !3324
  %56 = sdiv exact i64 %55, 8, !dbg !3324
  call void @_ZNSt12_Vector_baseI7latLongSaIS0_EE13_M_deallocateEPS0_m(ptr noundef nonnull align 8 dereferenceable(24) %15, ptr noundef %48, i64 noundef %56), !dbg !3325
  %57 = load ptr, ptr %12, align 8, !dbg !3326
  %58 = getelementptr inbounds %"struct.std::_Vector_base.1", ptr %15, i32 0, i32 0, !dbg !3327
  %59 = getelementptr inbounds %"struct.std::_Vector_base<latLong, std::allocator<latLong>>::_Vector_impl_data", ptr %58, i32 0, i32 0, !dbg !3328
  store ptr %57, ptr %59, align 8, !dbg !3329
  %60 = load ptr, ptr %13, align 8, !dbg !3330
  %61 = getelementptr inbounds %"struct.std::_Vector_base.1", ptr %15, i32 0, i32 0, !dbg !3331
  %62 = getelementptr inbounds %"struct.std::_Vector_base<latLong, std::allocator<latLong>>::_Vector_impl_data", ptr %61, i32 0, i32 1, !dbg !3332
  store ptr %60, ptr %62, align 8, !dbg !3333
  %63 = load ptr, ptr %12, align 8, !dbg !3334
  %64 = load i64, ptr %7, align 8, !dbg !3335
  %65 = getelementptr inbounds %struct.latLong, ptr %63, i64 %64, !dbg !3336
  %66 = getelementptr inbounds %"struct.std::_Vector_base.1", ptr %15, i32 0, i32 0, !dbg !3337
  %67 = getelementptr inbounds %"struct.std::_Vector_base<latLong, std::allocator<latLong>>::_Vector_impl_data", ptr %66, i32 0, i32 2, !dbg !3338
  store ptr %65, ptr %67, align 8, !dbg !3339
  ret void, !dbg !3340
}

; Function Attrs: mustprogress noinline nounwind optnone uwtable
define linkonce_odr dso_local ptr @_ZNSt6vectorI7latLongSaIS0_EE3endEv(ptr noundef nonnull align 8 dereferenceable(24) %0) #5 comdat align 2 !dbg !3341 {
  %2 = alloca %"class.__gnu_cxx::__normal_iterator", align 8
  %3 = alloca ptr, align 8
  store ptr %0, ptr %3, align 8
  call void @llvm.dbg.declare(metadata ptr %3, metadata !3342, metadata !DIExpression()), !dbg !3343
  %4 = load ptr, ptr %3, align 8
  %5 = getelementptr inbounds %"struct.std::_Vector_base.1", ptr %4, i32 0, i32 0, !dbg !3344
  %6 = getelementptr inbounds %"struct.std::_Vector_base<latLong, std::allocator<latLong>>::_Vector_impl_data", ptr %5, i32 0, i32 1, !dbg !3345
  call void @_ZN9__gnu_cxx17__normal_iteratorIP7latLongSt6vectorIS1_SaIS1_EEEC2ERKS2_(ptr noundef nonnull align 8 dereferenceable(8) %2, ptr noundef nonnull align 8 dereferenceable(8) %6) #17, !dbg !3346
  %7 = getelementptr inbounds %"class.__gnu_cxx::__normal_iterator", ptr %2, i32 0, i32 0, !dbg !3347
  %8 = load ptr, ptr %7, align 8, !dbg !3347
  ret ptr %8, !dbg !3347
}

; Function Attrs: alwaysinline mustprogress nounwind uwtable
define linkonce_odr dso_local void @_ZNSt15__new_allocatorI7latLongE9constructIS0_JRKS0_EEEvPT_DpOT0_(ptr noundef nonnull align 1 dereferenceable(1) %0, ptr noundef %1, ptr noundef nonnull align 4 dereferenceable(8) %2) #11 comdat align 2 !dbg !3348 {
  %4 = alloca ptr, align 8
  %5 = alloca ptr, align 8
  %6 = alloca ptr, align 8
  store ptr %0, ptr %4, align 8
  call void @llvm.dbg.declare(metadata ptr %4, metadata !3352, metadata !DIExpression()), !dbg !3353
  store ptr %1, ptr %5, align 8
  call void @llvm.dbg.declare(metadata ptr %5, metadata !3354, metadata !DIExpression()), !dbg !3355
  store ptr %2, ptr %6, align 8
  call void @llvm.dbg.declare(metadata ptr %6, metadata !3356, metadata !DIExpression()), !dbg !3357
  %7 = load ptr, ptr %4, align 8
  %8 = load ptr, ptr %5, align 8, !dbg !3358
  %9 = load ptr, ptr %6, align 8, !dbg !3359
  call void @llvm.memcpy.p0.p0.i64(ptr align 4 %8, ptr align 4 %9, i64 8, i1 false), !dbg !3360
  ret void, !dbg !3361
}

; Function Attrs: mustprogress noinline optnone uwtable
define linkonce_odr dso_local noundef i64 @_ZNKSt6vectorI7latLongSaIS0_EE12_M_check_lenEmPKc(ptr noundef nonnull align 8 dereferenceable(24) %0, i64 noundef %1, ptr noundef %2) #6 comdat align 2 !dbg !3362 {
  %4 = alloca ptr, align 8
  %5 = alloca i64, align 8
  %6 = alloca ptr, align 8
  %7 = alloca i64, align 8
  %8 = alloca i64, align 8
  store ptr %0, ptr %4, align 8
  call void @llvm.dbg.declare(metadata ptr %4, metadata !3363, metadata !DIExpression()), !dbg !3365
  store i64 %1, ptr %5, align 8
  call void @llvm.dbg.declare(metadata ptr %5, metadata !3366, metadata !DIExpression()), !dbg !3367
  store ptr %2, ptr %6, align 8
  call void @llvm.dbg.declare(metadata ptr %6, metadata !3368, metadata !DIExpression()), !dbg !3369
  %9 = load ptr, ptr %4, align 8
  %10 = call noundef i64 @_ZNKSt6vectorI7latLongSaIS0_EE8max_sizeEv(ptr noundef nonnull align 8 dereferenceable(24) %9) #17, !dbg !3370
  %11 = call noundef i64 @_ZNKSt6vectorI7latLongSaIS0_EE4sizeEv(ptr noundef nonnull align 8 dereferenceable(24) %9) #17, !dbg !3372
  %12 = sub i64 %10, %11, !dbg !3373
  %13 = load i64, ptr %5, align 8, !dbg !3374
  %14 = icmp ult i64 %12, %13, !dbg !3375
  br i1 %14, label %15, label %17, !dbg !3376

15:                                               ; preds = %3
  %16 = load ptr, ptr %6, align 8, !dbg !3377
  call void @_ZSt20__throw_length_errorPKc(ptr noundef %16) #23, !dbg !3378
  unreachable, !dbg !3378

17:                                               ; preds = %3
  call void @llvm.dbg.declare(metadata ptr %7, metadata !3379, metadata !DIExpression()), !dbg !3380
  %18 = call noundef i64 @_ZNKSt6vectorI7latLongSaIS0_EE4sizeEv(ptr noundef nonnull align 8 dereferenceable(24) %9) #17, !dbg !3381
  %19 = call noundef i64 @_ZNKSt6vectorI7latLongSaIS0_EE4sizeEv(ptr noundef nonnull align 8 dereferenceable(24) %9) #17, !dbg !3382
  store i64 %19, ptr %8, align 8, !dbg !3382
  %20 = call noundef nonnull align 8 dereferenceable(8) ptr @_ZSt3maxImERKT_S2_S2_(ptr noundef nonnull align 8 dereferenceable(8) %8, ptr noundef nonnull align 8 dereferenceable(8) %5), !dbg !3383
  %21 = load i64, ptr %20, align 8, !dbg !3383
  %22 = add i64 %18, %21, !dbg !3384
  store i64 %22, ptr %7, align 8, !dbg !3380
  %23 = load i64, ptr %7, align 8, !dbg !3385
  %24 = call noundef i64 @_ZNKSt6vectorI7latLongSaIS0_EE4sizeEv(ptr noundef nonnull align 8 dereferenceable(24) %9) #17, !dbg !3386
  %25 = icmp ult i64 %23, %24, !dbg !3387
  br i1 %25, label %30, label %26, !dbg !3388

26:                                               ; preds = %17
  %27 = load i64, ptr %7, align 8, !dbg !3389
  %28 = call noundef i64 @_ZNKSt6vectorI7latLongSaIS0_EE8max_sizeEv(ptr noundef nonnull align 8 dereferenceable(24) %9) #17, !dbg !3390
  %29 = icmp ugt i64 %27, %28, !dbg !3391
  br i1 %29, label %30, label %32, !dbg !3392

30:                                               ; preds = %26, %17
  %31 = call noundef i64 @_ZNKSt6vectorI7latLongSaIS0_EE8max_sizeEv(ptr noundef nonnull align 8 dereferenceable(24) %9) #17, !dbg !3393
  br label %34, !dbg !3392

32:                                               ; preds = %26
  %33 = load i64, ptr %7, align 8, !dbg !3394
  br label %34, !dbg !3392

34:                                               ; preds = %32, %30
  %35 = phi i64 [ %31, %30 ], [ %33, %32 ], !dbg !3392
  ret i64 %35, !dbg !3395
}

; Function Attrs: mustprogress noinline nounwind optnone uwtable
define linkonce_odr dso_local noundef i64 @_ZN9__gnu_cxxmiIP7latLongSt6vectorIS1_SaIS1_EEEENS_17__normal_iteratorIT_T0_E15difference_typeERKS9_SC_(ptr noundef nonnull align 8 dereferenceable(8) %0, ptr noundef nonnull align 8 dereferenceable(8) %1) #5 comdat !dbg !3396 {
  %3 = alloca ptr, align 8
  %4 = alloca ptr, align 8
  store ptr %0, ptr %3, align 8
  call void @llvm.dbg.declare(metadata ptr %3, metadata !3400, metadata !DIExpression()), !dbg !3401
  store ptr %1, ptr %4, align 8
  call void @llvm.dbg.declare(metadata ptr %4, metadata !3402, metadata !DIExpression()), !dbg !3403
  %5 = load ptr, ptr %3, align 8, !dbg !3404
  %6 = call noundef nonnull align 8 dereferenceable(8) ptr @_ZNK9__gnu_cxx17__normal_iteratorIP7latLongSt6vectorIS1_SaIS1_EEE4baseEv(ptr noundef nonnull align 8 dereferenceable(8) %5) #17, !dbg !3405
  %7 = load ptr, ptr %6, align 8, !dbg !3405
  %8 = load ptr, ptr %4, align 8, !dbg !3406
  %9 = call noundef nonnull align 8 dereferenceable(8) ptr @_ZNK9__gnu_cxx17__normal_iteratorIP7latLongSt6vectorIS1_SaIS1_EEE4baseEv(ptr noundef nonnull align 8 dereferenceable(8) %8) #17, !dbg !3407
  %10 = load ptr, ptr %9, align 8, !dbg !3407
  %11 = ptrtoint ptr %7 to i64, !dbg !3408
  %12 = ptrtoint ptr %10 to i64, !dbg !3408
  %13 = sub i64 %11, %12, !dbg !3408
  %14 = sdiv exact i64 %13, 8, !dbg !3408
  ret i64 %14, !dbg !3409
}

; Function Attrs: mustprogress noinline nounwind optnone uwtable
define linkonce_odr dso_local ptr @_ZNSt6vectorI7latLongSaIS0_EE5beginEv(ptr noundef nonnull align 8 dereferenceable(24) %0) #5 comdat align 2 !dbg !3410 {
  %2 = alloca %"class.__gnu_cxx::__normal_iterator", align 8
  %3 = alloca ptr, align 8
  store ptr %0, ptr %3, align 8
  call void @llvm.dbg.declare(metadata ptr %3, metadata !3411, metadata !DIExpression()), !dbg !3412
  %4 = load ptr, ptr %3, align 8
  %5 = getelementptr inbounds %"struct.std::_Vector_base.1", ptr %4, i32 0, i32 0, !dbg !3413
  %6 = getelementptr inbounds %"struct.std::_Vector_base<latLong, std::allocator<latLong>>::_Vector_impl_data", ptr %5, i32 0, i32 0, !dbg !3414
  call void @_ZN9__gnu_cxx17__normal_iteratorIP7latLongSt6vectorIS1_SaIS1_EEEC2ERKS2_(ptr noundef nonnull align 8 dereferenceable(8) %2, ptr noundef nonnull align 8 dereferenceable(8) %6) #17, !dbg !3415
  %7 = getelementptr inbounds %"class.__gnu_cxx::__normal_iterator", ptr %2, i32 0, i32 0, !dbg !3416
  %8 = load ptr, ptr %7, align 8, !dbg !3416
  ret ptr %8, !dbg !3416
}

; Function Attrs: mustprogress noinline optnone uwtable
define linkonce_odr dso_local noundef ptr @_ZNSt12_Vector_baseI7latLongSaIS0_EE11_M_allocateEm(ptr noundef nonnull align 8 dereferenceable(24) %0, i64 noundef %1) #6 comdat align 2 !dbg !3417 {
  %3 = alloca ptr, align 8
  %4 = alloca i64, align 8
  store ptr %0, ptr %3, align 8
  call void @llvm.dbg.declare(metadata ptr %3, metadata !3418, metadata !DIExpression()), !dbg !3419
  store i64 %1, ptr %4, align 8
  call void @llvm.dbg.declare(metadata ptr %4, metadata !3420, metadata !DIExpression()), !dbg !3421
  %5 = load ptr, ptr %3, align 8
  %6 = load i64, ptr %4, align 8, !dbg !3422
  %7 = icmp ne i64 %6, 0, !dbg !3423
  br i1 %7, label %8, label %12, !dbg !3422

8:                                                ; preds = %2
  %9 = getelementptr inbounds %"struct.std::_Vector_base.1", ptr %5, i32 0, i32 0, !dbg !3424
  %10 = load i64, ptr %4, align 8, !dbg !3425
  %11 = call noundef ptr @_ZNSt16allocator_traitsISaI7latLongEE8allocateERS1_m(ptr noundef nonnull align 1 dereferenceable(1) %9, i64 noundef %10), !dbg !3426
  br label %13, !dbg !3422

12:                                               ; preds = %2
  br label %13, !dbg !3422

13:                                               ; preds = %12, %8
  %14 = phi ptr [ %11, %8 ], [ null, %12 ], !dbg !3422
  ret ptr %14, !dbg !3427
}

; Function Attrs: mustprogress noinline nounwind optnone uwtable
define linkonce_odr dso_local noundef ptr @_ZNSt6vectorI7latLongSaIS0_EE11_S_relocateEPS0_S3_S3_RS1_(ptr noundef %0, ptr noundef %1, ptr noundef %2, ptr noundef nonnull align 1 dereferenceable(1) %3) #5 comdat align 2 !dbg !747 {
  %5 = alloca ptr, align 8
  %6 = alloca ptr, align 8
  %7 = alloca ptr, align 8
  %8 = alloca ptr, align 8
  %9 = alloca %"struct.std::integral_constant", align 1
  store ptr %0, ptr %5, align 8
  call void @llvm.dbg.declare(metadata ptr %5, metadata !3428, metadata !DIExpression()), !dbg !3429
  store ptr %1, ptr %6, align 8
  call void @llvm.dbg.declare(metadata ptr %6, metadata !3430, metadata !DIExpression()), !dbg !3431
  store ptr %2, ptr %7, align 8
  call void @llvm.dbg.declare(metadata ptr %7, metadata !3432, metadata !DIExpression()), !dbg !3433
  store ptr %3, ptr %8, align 8
  call void @llvm.dbg.declare(metadata ptr %8, metadata !3434, metadata !DIExpression()), !dbg !3435
  %10 = load ptr, ptr %5, align 8, !dbg !3436
  %11 = load ptr, ptr %6, align 8, !dbg !3437
  %12 = load ptr, ptr %7, align 8, !dbg !3438
  %13 = load ptr, ptr %8, align 8, !dbg !3439
  %14 = call noundef ptr @_ZNSt6vectorI7latLongSaIS0_EE14_S_do_relocateEPS0_S3_S3_RS1_St17integral_constantIbLb1EE(ptr noundef %10, ptr noundef %11, ptr noundef %12, ptr noundef nonnull align 1 dereferenceable(1) %13) #17, !dbg !3440
  ret ptr %14, !dbg !3441
}

; Function Attrs: mustprogress noinline nounwind optnone uwtable
define linkonce_odr dso_local noundef nonnull align 8 dereferenceable(8) ptr @_ZNK9__gnu_cxx17__normal_iteratorIP7latLongSt6vectorIS1_SaIS1_EEE4baseEv(ptr noundef nonnull align 8 dereferenceable(8) %0) #5 comdat align 2 !dbg !3442 {
  %2 = alloca ptr, align 8
  store ptr %0, ptr %2, align 8
  call void @llvm.dbg.declare(metadata ptr %2, metadata !3443, metadata !DIExpression()), !dbg !3445
  %3 = load ptr, ptr %2, align 8
  %4 = getelementptr inbounds %"class.__gnu_cxx::__normal_iterator", ptr %3, i32 0, i32 0, !dbg !3446
  ret ptr %4, !dbg !3447
}

; Function Attrs: mustprogress noinline nounwind optnone uwtable
define linkonce_odr dso_local noundef i64 @_ZNKSt6vectorI7latLongSaIS0_EE8max_sizeEv(ptr noundef nonnull align 8 dereferenceable(24) %0) #5 comdat align 2 !dbg !3448 {
  %2 = alloca ptr, align 8
  store ptr %0, ptr %2, align 8
  call void @llvm.dbg.declare(metadata ptr %2, metadata !3449, metadata !DIExpression()), !dbg !3450
  %3 = load ptr, ptr %2, align 8
  %4 = call noundef nonnull align 1 dereferenceable(1) ptr @_ZNKSt12_Vector_baseI7latLongSaIS0_EE19_M_get_Tp_allocatorEv(ptr noundef nonnull align 8 dereferenceable(24) %3) #17, !dbg !3451
  %5 = call noundef i64 @_ZNSt6vectorI7latLongSaIS0_EE11_S_max_sizeERKS1_(ptr noundef nonnull align 1 dereferenceable(1) %4) #17, !dbg !3452
  ret i64 %5, !dbg !3453
}

; Function Attrs: mustprogress noinline nounwind optnone uwtable
define linkonce_odr dso_local noundef i64 @_ZNKSt6vectorI7latLongSaIS0_EE4sizeEv(ptr noundef nonnull align 8 dereferenceable(24) %0) #5 comdat align 2 !dbg !3454 {
  %2 = alloca ptr, align 8
  store ptr %0, ptr %2, align 8
  call void @llvm.dbg.declare(metadata ptr %2, metadata !3455, metadata !DIExpression()), !dbg !3456
  %3 = load ptr, ptr %2, align 8
  %4 = getelementptr inbounds %"struct.std::_Vector_base.1", ptr %3, i32 0, i32 0, !dbg !3457
  %5 = getelementptr inbounds %"struct.std::_Vector_base<latLong, std::allocator<latLong>>::_Vector_impl_data", ptr %4, i32 0, i32 1, !dbg !3458
  %6 = load ptr, ptr %5, align 8, !dbg !3458
  %7 = getelementptr inbounds %"struct.std::_Vector_base.1", ptr %3, i32 0, i32 0, !dbg !3459
  %8 = getelementptr inbounds %"struct.std::_Vector_base<latLong, std::allocator<latLong>>::_Vector_impl_data", ptr %7, i32 0, i32 0, !dbg !3460
  %9 = load ptr, ptr %8, align 8, !dbg !3460
  %10 = ptrtoint ptr %6 to i64, !dbg !3461
  %11 = ptrtoint ptr %9 to i64, !dbg !3461
  %12 = sub i64 %10, %11, !dbg !3461
  %13 = sdiv exact i64 %12, 8, !dbg !3461
  ret i64 %13, !dbg !3462
}

; Function Attrs: noreturn
declare void @_ZSt20__throw_length_errorPKc(ptr noundef) #15

; Function Attrs: mustprogress noinline nounwind optnone uwtable
define linkonce_odr dso_local noundef nonnull align 8 dereferenceable(8) ptr @_ZSt3maxImERKT_S2_S2_(ptr noundef nonnull align 8 dereferenceable(8) %0, ptr noundef nonnull align 8 dereferenceable(8) %1) #5 comdat !dbg !3463 {
  %3 = alloca ptr, align 8
  %4 = alloca ptr, align 8
  %5 = alloca ptr, align 8
  store ptr %0, ptr %4, align 8
  call void @llvm.dbg.declare(metadata ptr %4, metadata !3471, metadata !DIExpression()), !dbg !3472
  store ptr %1, ptr %5, align 8
  call void @llvm.dbg.declare(metadata ptr %5, metadata !3473, metadata !DIExpression()), !dbg !3474
  %6 = load ptr, ptr %4, align 8, !dbg !3475
  %7 = load i64, ptr %6, align 8, !dbg !3475
  %8 = load ptr, ptr %5, align 8, !dbg !3477
  %9 = load i64, ptr %8, align 8, !dbg !3477
  %10 = icmp ult i64 %7, %9, !dbg !3478
  br i1 %10, label %11, label %13, !dbg !3479

11:                                               ; preds = %2
  %12 = load ptr, ptr %5, align 8, !dbg !3480
  store ptr %12, ptr %3, align 8, !dbg !3481
  br label %15, !dbg !3481

13:                                               ; preds = %2
  %14 = load ptr, ptr %4, align 8, !dbg !3482
  store ptr %14, ptr %3, align 8, !dbg !3483
  br label %15, !dbg !3483

15:                                               ; preds = %13, %11
  %16 = load ptr, ptr %3, align 8, !dbg !3484
  ret ptr %16, !dbg !3484
}

; Function Attrs: mustprogress noinline nounwind optnone uwtable
define linkonce_odr dso_local noundef i64 @_ZNSt6vectorI7latLongSaIS0_EE11_S_max_sizeERKS1_(ptr noundef nonnull align 1 dereferenceable(1) %0) #5 comdat align 2 personality ptr @__gxx_personality_v0 !dbg !3485 {
  %2 = alloca ptr, align 8
  %3 = alloca i64, align 8
  %4 = alloca i64, align 8
  store ptr %0, ptr %2, align 8
  call void @llvm.dbg.declare(metadata ptr %2, metadata !3486, metadata !DIExpression()), !dbg !3487
  call void @llvm.dbg.declare(metadata ptr %3, metadata !3488, metadata !DIExpression()), !dbg !3490
  store i64 1152921504606846975, ptr %3, align 8, !dbg !3490
  call void @llvm.dbg.declare(metadata ptr %4, metadata !3491, metadata !DIExpression()), !dbg !3492
  %5 = load ptr, ptr %2, align 8, !dbg !3493
  %6 = call noundef i64 @_ZNSt16allocator_traitsISaI7latLongEE8max_sizeERKS1_(ptr noundef nonnull align 1 dereferenceable(1) %5) #17, !dbg !3494
  store i64 %6, ptr %4, align 8, !dbg !3492
  %7 = invoke noundef nonnull align 8 dereferenceable(8) ptr @_ZSt3minImERKT_S2_S2_(ptr noundef nonnull align 8 dereferenceable(8) %3, ptr noundef nonnull align 8 dereferenceable(8) %4)
          to label %8 unwind label %10, !dbg !3495

8:                                                ; preds = %1
  %9 = load i64, ptr %7, align 8, !dbg !3495
  ret i64 %9, !dbg !3496

10:                                               ; preds = %1
  %11 = landingpad { ptr, i32 }
          catch ptr null, !dbg !3495
  %12 = extractvalue { ptr, i32 } %11, 0, !dbg !3495
  call void @__clang_call_terminate(ptr %12) #21, !dbg !3495
  unreachable, !dbg !3495
}

; Function Attrs: mustprogress noinline nounwind optnone uwtable
define linkonce_odr dso_local noundef nonnull align 1 dereferenceable(1) ptr @_ZNKSt12_Vector_baseI7latLongSaIS0_EE19_M_get_Tp_allocatorEv(ptr noundef nonnull align 8 dereferenceable(24) %0) #5 comdat align 2 !dbg !3497 {
  %2 = alloca ptr, align 8
  store ptr %0, ptr %2, align 8
  call void @llvm.dbg.declare(metadata ptr %2, metadata !3498, metadata !DIExpression()), !dbg !3500
  %3 = load ptr, ptr %2, align 8
  %4 = getelementptr inbounds %"struct.std::_Vector_base.1", ptr %3, i32 0, i32 0, !dbg !3501
  ret ptr %4, !dbg !3502
}

; Function Attrs: alwaysinline mustprogress nounwind uwtable
define linkonce_odr dso_local noundef i64 @_ZNSt16allocator_traitsISaI7latLongEE8max_sizeERKS1_(ptr noundef nonnull align 1 dereferenceable(1) %0) #11 comdat align 2 !dbg !3503 {
  %2 = alloca ptr, align 8
  store ptr %0, ptr %2, align 8
  call void @llvm.dbg.declare(metadata ptr %2, metadata !3504, metadata !DIExpression()), !dbg !3505
  %3 = load ptr, ptr %2, align 8, !dbg !3506
  %4 = call noundef i64 @_ZNKSt15__new_allocatorI7latLongE8max_sizeEv(ptr noundef nonnull align 1 dereferenceable(1) %3) #17, !dbg !3507
  ret i64 %4, !dbg !3508
}

; Function Attrs: mustprogress noinline nounwind optnone uwtable
define linkonce_odr dso_local noundef nonnull align 8 dereferenceable(8) ptr @_ZSt3minImERKT_S2_S2_(ptr noundef nonnull align 8 dereferenceable(8) %0, ptr noundef nonnull align 8 dereferenceable(8) %1) #5 comdat !dbg !3509 {
  %3 = alloca ptr, align 8
  %4 = alloca ptr, align 8
  %5 = alloca ptr, align 8
  store ptr %0, ptr %4, align 8
  call void @llvm.dbg.declare(metadata ptr %4, metadata !3510, metadata !DIExpression()), !dbg !3511
  store ptr %1, ptr %5, align 8
  call void @llvm.dbg.declare(metadata ptr %5, metadata !3512, metadata !DIExpression()), !dbg !3513
  %6 = load ptr, ptr %5, align 8, !dbg !3514
  %7 = load i64, ptr %6, align 8, !dbg !3514
  %8 = load ptr, ptr %4, align 8, !dbg !3516
  %9 = load i64, ptr %8, align 8, !dbg !3516
  %10 = icmp ult i64 %7, %9, !dbg !3517
  br i1 %10, label %11, label %13, !dbg !3518

11:                                               ; preds = %2
  %12 = load ptr, ptr %5, align 8, !dbg !3519
  store ptr %12, ptr %3, align 8, !dbg !3520
  br label %15, !dbg !3520

13:                                               ; preds = %2
  %14 = load ptr, ptr %4, align 8, !dbg !3521
  store ptr %14, ptr %3, align 8, !dbg !3522
  br label %15, !dbg !3522

15:                                               ; preds = %13, %11
  %16 = load ptr, ptr %3, align 8, !dbg !3523
  ret ptr %16, !dbg !3523
}

; Function Attrs: alwaysinline mustprogress nounwind uwtable
define linkonce_odr dso_local noundef i64 @_ZNKSt15__new_allocatorI7latLongE8max_sizeEv(ptr noundef nonnull align 1 dereferenceable(1) %0) #11 comdat align 2 !dbg !3524 {
  %2 = alloca ptr, align 8
  store ptr %0, ptr %2, align 8
  call void @llvm.dbg.declare(metadata ptr %2, metadata !3525, metadata !DIExpression()), !dbg !3527
  %3 = load ptr, ptr %2, align 8
  %4 = call noundef i64 @_ZNKSt15__new_allocatorI7latLongE11_M_max_sizeEv(ptr noundef nonnull align 1 dereferenceable(1) %3) #17, !dbg !3528
  ret i64 %4, !dbg !3529
}

; Function Attrs: alwaysinline mustprogress nounwind uwtable
define linkonce_odr dso_local noundef i64 @_ZNKSt15__new_allocatorI7latLongE11_M_max_sizeEv(ptr noundef nonnull align 1 dereferenceable(1) %0) #11 comdat align 2 !dbg !3530 {
  %2 = alloca ptr, align 8
  store ptr %0, ptr %2, align 8
  call void @llvm.dbg.declare(metadata ptr %2, metadata !3531, metadata !DIExpression()), !dbg !3532
  %3 = load ptr, ptr %2, align 8
  ret i64 1152921504606846975, !dbg !3533
}

; Function Attrs: mustprogress noinline nounwind optnone uwtable
define linkonce_odr dso_local void @_ZN9__gnu_cxx17__normal_iteratorIP7latLongSt6vectorIS1_SaIS1_EEEC2ERKS2_(ptr noundef nonnull align 8 dereferenceable(8) %0, ptr noundef nonnull align 8 dereferenceable(8) %1) unnamed_addr #5 comdat align 2 !dbg !3534 {
  %3 = alloca ptr, align 8
  %4 = alloca ptr, align 8
  store ptr %0, ptr %3, align 8
  call void @llvm.dbg.declare(metadata ptr %3, metadata !3535, metadata !DIExpression()), !dbg !3537
  store ptr %1, ptr %4, align 8
  call void @llvm.dbg.declare(metadata ptr %4, metadata !3538, metadata !DIExpression()), !dbg !3539
  %5 = load ptr, ptr %3, align 8
  %6 = getelementptr inbounds %"class.__gnu_cxx::__normal_iterator", ptr %5, i32 0, i32 0, !dbg !3540
  %7 = load ptr, ptr %4, align 8, !dbg !3541
  %8 = load ptr, ptr %7, align 8, !dbg !3541
  store ptr %8, ptr %6, align 8, !dbg !3540
  ret void, !dbg !3542
}

; Function Attrs: alwaysinline mustprogress uwtable
define linkonce_odr dso_local noundef ptr @_ZNSt16allocator_traitsISaI7latLongEE8allocateERS1_m(ptr noundef nonnull align 1 dereferenceable(1) %0, i64 noundef %1) #12 comdat align 2 !dbg !3543 {
  %3 = alloca ptr, align 8
  %4 = alloca i64, align 8
  store ptr %0, ptr %3, align 8
  call void @llvm.dbg.declare(metadata ptr %3, metadata !3544, metadata !DIExpression()), !dbg !3545
  store i64 %1, ptr %4, align 8
  call void @llvm.dbg.declare(metadata ptr %4, metadata !3546, metadata !DIExpression()), !dbg !3547
  %5 = load ptr, ptr %3, align 8, !dbg !3548
  %6 = load i64, ptr %4, align 8, !dbg !3549
  %7 = call noundef ptr @_ZNSt15__new_allocatorI7latLongE8allocateEmPKv(ptr noundef nonnull align 1 dereferenceable(1) %5, i64 noundef %6, ptr noundef null), !dbg !3550
  ret ptr %7, !dbg !3551
}

; Function Attrs: mustprogress noinline optnone uwtable
define linkonce_odr dso_local noundef ptr @_ZNSt15__new_allocatorI7latLongE8allocateEmPKv(ptr noundef nonnull align 1 dereferenceable(1) %0, i64 noundef %1, ptr noundef %2) #6 comdat align 2 !dbg !3552 {
  %4 = alloca ptr, align 8
  %5 = alloca i64, align 8
  %6 = alloca ptr, align 8
  store ptr %0, ptr %4, align 8
  call void @llvm.dbg.declare(metadata ptr %4, metadata !3553, metadata !DIExpression()), !dbg !3554
  store i64 %1, ptr %5, align 8
  call void @llvm.dbg.declare(metadata ptr %5, metadata !3555, metadata !DIExpression()), !dbg !3556
  store ptr %2, ptr %6, align 8
  call void @llvm.dbg.declare(metadata ptr %6, metadata !3557, metadata !DIExpression()), !dbg !3558
  %7 = load ptr, ptr %4, align 8
  %8 = load i64, ptr %5, align 8, !dbg !3559
  %9 = call noundef i64 @_ZNKSt15__new_allocatorI7latLongE11_M_max_sizeEv(ptr noundef nonnull align 1 dereferenceable(1) %7) #17, !dbg !3561
  %10 = icmp ugt i64 %8, %9, !dbg !3562
  br i1 %10, label %11, label %16, !dbg !3563

11:                                               ; preds = %3
  %12 = load i64, ptr %5, align 8, !dbg !3564
  %13 = icmp ugt i64 %12, 2305843009213693951, !dbg !3567
  br i1 %13, label %14, label %15, !dbg !3568

14:                                               ; preds = %11
  call void @_ZSt28__throw_bad_array_new_lengthv() #23, !dbg !3569
  unreachable, !dbg !3569

15:                                               ; preds = %11
  call void @_ZSt17__throw_bad_allocv() #23, !dbg !3570
  unreachable, !dbg !3570

16:                                               ; preds = %3
  %17 = load i64, ptr %5, align 8, !dbg !3571
  %18 = mul i64 %17, 8, !dbg !3572
  %19 = call noalias noundef nonnull ptr @_Znwm(i64 noundef %18) #24, !dbg !3573
  ret ptr %19, !dbg !3574
}

; Function Attrs: noreturn
declare void @_ZSt28__throw_bad_array_new_lengthv() #15

; Function Attrs: noreturn
declare void @_ZSt17__throw_bad_allocv() #15

; Function Attrs: nobuiltin allocsize(0)
declare noundef nonnull ptr @_Znwm(i64 noundef) #16

; Function Attrs: mustprogress noinline nounwind optnone uwtable
define linkonce_odr dso_local noundef ptr @_ZNSt6vectorI7latLongSaIS0_EE14_S_do_relocateEPS0_S3_S3_RS1_St17integral_constantIbLb1EE(ptr noundef %0, ptr noundef %1, ptr noundef %2, ptr noundef nonnull align 1 dereferenceable(1) %3) #5 comdat align 2 !dbg !3575 {
  %5 = alloca %"struct.std::integral_constant", align 1
  %6 = alloca ptr, align 8
  %7 = alloca ptr, align 8
  %8 = alloca ptr, align 8
  %9 = alloca ptr, align 8
  store ptr %0, ptr %6, align 8
  call void @llvm.dbg.declare(metadata ptr %6, metadata !3576, metadata !DIExpression()), !dbg !3577
  store ptr %1, ptr %7, align 8
  call void @llvm.dbg.declare(metadata ptr %7, metadata !3578, metadata !DIExpression()), !dbg !3579
  store ptr %2, ptr %8, align 8
  call void @llvm.dbg.declare(metadata ptr %8, metadata !3580, metadata !DIExpression()), !dbg !3581
  store ptr %3, ptr %9, align 8
  call void @llvm.dbg.declare(metadata ptr %9, metadata !3582, metadata !DIExpression()), !dbg !3583
  call void @llvm.dbg.declare(metadata ptr %5, metadata !3584, metadata !DIExpression()), !dbg !3585
  %10 = load ptr, ptr %6, align 8, !dbg !3586
  %11 = load ptr, ptr %7, align 8, !dbg !3587
  %12 = load ptr, ptr %8, align 8, !dbg !3588
  %13 = load ptr, ptr %9, align 8, !dbg !3589
  %14 = call noundef ptr @_ZSt12__relocate_aIP7latLongS1_SaIS0_EET0_T_S4_S3_RT1_(ptr noundef %10, ptr noundef %11, ptr noundef %12, ptr noundef nonnull align 1 dereferenceable(1) %13) #17, !dbg !3590
  ret ptr %14, !dbg !3591
}

; Function Attrs: mustprogress noinline nounwind optnone uwtable
define linkonce_odr dso_local noundef ptr @_ZSt12__relocate_aIP7latLongS1_SaIS0_EET0_T_S4_S3_RT1_(ptr noundef %0, ptr noundef %1, ptr noundef %2, ptr noundef nonnull align 1 dereferenceable(1) %3) #5 comdat !dbg !3592 {
  %5 = alloca ptr, align 8
  %6 = alloca ptr, align 8
  %7 = alloca ptr, align 8
  %8 = alloca ptr, align 8
  store ptr %0, ptr %5, align 8
  call void @llvm.dbg.declare(metadata ptr %5, metadata !3599, metadata !DIExpression()), !dbg !3600
  store ptr %1, ptr %6, align 8
  call void @llvm.dbg.declare(metadata ptr %6, metadata !3601, metadata !DIExpression()), !dbg !3602
  store ptr %2, ptr %7, align 8
  call void @llvm.dbg.declare(metadata ptr %7, metadata !3603, metadata !DIExpression()), !dbg !3604
  store ptr %3, ptr %8, align 8
  call void @llvm.dbg.declare(metadata ptr %8, metadata !3605, metadata !DIExpression()), !dbg !3606
  %9 = load ptr, ptr %5, align 8, !dbg !3607
  %10 = call noundef ptr @_ZSt12__niter_baseIP7latLongET_S2_(ptr noundef %9) #17, !dbg !3608
  %11 = load ptr, ptr %6, align 8, !dbg !3609
  %12 = call noundef ptr @_ZSt12__niter_baseIP7latLongET_S2_(ptr noundef %11) #17, !dbg !3610
  %13 = load ptr, ptr %7, align 8, !dbg !3611
  %14 = call noundef ptr @_ZSt12__niter_baseIP7latLongET_S2_(ptr noundef %13) #17, !dbg !3612
  %15 = load ptr, ptr %8, align 8, !dbg !3613
  %16 = call noundef ptr @_ZSt14__relocate_a_1I7latLongS0_ENSt9enable_ifIXsr3std24__is_bitwise_relocatableIT_EE5valueEPS2_E4typeES3_S3_S3_RSaIT0_E(ptr noundef %10, ptr noundef %12, ptr noundef %14, ptr noundef nonnull align 1 dereferenceable(1) %15) #17, !dbg !3614
  ret ptr %16, !dbg !3615
}

; Function Attrs: mustprogress noinline nounwind optnone uwtable
define linkonce_odr dso_local noundef ptr @_ZSt14__relocate_a_1I7latLongS0_ENSt9enable_ifIXsr3std24__is_bitwise_relocatableIT_EE5valueEPS2_E4typeES3_S3_S3_RSaIT0_E(ptr noundef %0, ptr noundef %1, ptr noundef %2, ptr noundef nonnull align 1 dereferenceable(1) %3) #5 comdat !dbg !3616 {
  %5 = alloca ptr, align 8
  %6 = alloca ptr, align 8
  %7 = alloca ptr, align 8
  %8 = alloca ptr, align 8
  %9 = alloca i64, align 8
  store ptr %0, ptr %5, align 8
  call void @llvm.dbg.declare(metadata ptr %5, metadata !3625, metadata !DIExpression()), !dbg !3626
  store ptr %1, ptr %6, align 8
  call void @llvm.dbg.declare(metadata ptr %6, metadata !3627, metadata !DIExpression()), !dbg !3628
  store ptr %2, ptr %7, align 8
  call void @llvm.dbg.declare(metadata ptr %7, metadata !3629, metadata !DIExpression()), !dbg !3630
  store ptr %3, ptr %8, align 8
  call void @llvm.dbg.declare(metadata ptr %8, metadata !3631, metadata !DIExpression()), !dbg !3632
  call void @llvm.dbg.declare(metadata ptr %9, metadata !3633, metadata !DIExpression()), !dbg !3634
  %10 = load ptr, ptr %6, align 8, !dbg !3635
  %11 = load ptr, ptr %5, align 8, !dbg !3636
  %12 = ptrtoint ptr %10 to i64, !dbg !3637
  %13 = ptrtoint ptr %11 to i64, !dbg !3637
  %14 = sub i64 %12, %13, !dbg !3637
  %15 = sdiv exact i64 %14, 8, !dbg !3637
  store i64 %15, ptr %9, align 8, !dbg !3634
  %16 = load i64, ptr %9, align 8, !dbg !3638
  %17 = icmp sgt i64 %16, 0, !dbg !3640
  br i1 %17, label %18, label %23, !dbg !3641

18:                                               ; preds = %4
  %19 = load ptr, ptr %7, align 8, !dbg !3642
  %20 = load ptr, ptr %5, align 8, !dbg !3644
  %21 = load i64, ptr %9, align 8, !dbg !3645
  %22 = mul i64 %21, 8, !dbg !3646
  call void @llvm.memmove.p0.p0.i64(ptr align 4 %19, ptr align 4 %20, i64 %22, i1 false), !dbg !3647
  br label %23, !dbg !3648

23:                                               ; preds = %18, %4
  %24 = load ptr, ptr %7, align 8, !dbg !3649
  %25 = load i64, ptr %9, align 8, !dbg !3650
  %26 = getelementptr inbounds %struct.latLong, ptr %24, i64 %25, !dbg !3651
  ret ptr %26, !dbg !3652
}

; Function Attrs: mustprogress noinline nounwind optnone uwtable
define linkonce_odr dso_local noundef ptr @_ZSt12__niter_baseIP7latLongET_S2_(ptr noundef %0) #5 comdat !dbg !3653 {
  %2 = alloca ptr, align 8
  store ptr %0, ptr %2, align 8
  call void @llvm.dbg.declare(metadata ptr %2, metadata !3656, metadata !DIExpression()), !dbg !3657
  %3 = load ptr, ptr %2, align 8, !dbg !3658
  ret ptr %3, !dbg !3659
}

; Function Attrs: nocallback nofree nounwind willreturn memory(argmem: readwrite)
declare void @llvm.memmove.p0.p0.i64(ptr nocapture writeonly, ptr nocapture readonly, i64, i1 immarg) #2

; Function Attrs: alwaysinline mustprogress nounwind uwtable
define linkonce_odr dso_local void @_ZNSt16allocator_traitsISaI6recordEE9constructIS0_JRKS0_EEEvRS1_PT_DpOT0_(ptr noundef nonnull align 1 dereferenceable(1) %0, ptr noundef %1, ptr noundef nonnull align 4 dereferenceable(60) %2) #11 comdat align 2 !dbg !3660 {
  %4 = alloca ptr, align 8
  %5 = alloca ptr, align 8
  %6 = alloca ptr, align 8
  store ptr %0, ptr %4, align 8
  call void @llvm.dbg.declare(metadata ptr %4, metadata !3669, metadata !DIExpression()), !dbg !3670
  store ptr %1, ptr %5, align 8
  call void @llvm.dbg.declare(metadata ptr %5, metadata !3671, metadata !DIExpression()), !dbg !3672
  store ptr %2, ptr %6, align 8
  call void @llvm.dbg.declare(metadata ptr %6, metadata !3673, metadata !DIExpression()), !dbg !3674
  %7 = load ptr, ptr %4, align 8, !dbg !3675
  %8 = load ptr, ptr %5, align 8, !dbg !3676
  %9 = load ptr, ptr %6, align 8, !dbg !3677
  call void @_ZNSt15__new_allocatorI6recordE9constructIS0_JRKS0_EEEvPT_DpOT0_(ptr noundef nonnull align 1 dereferenceable(1) %7, ptr noundef %8, ptr noundef nonnull align 4 dereferenceable(60) %9) #17, !dbg !3678
  ret void, !dbg !3679
}

; Function Attrs: mustprogress noinline optnone uwtable
define linkonce_odr dso_local void @_ZNSt6vectorI6recordSaIS0_EE17_M_realloc_insertIJRKS0_EEEvN9__gnu_cxx17__normal_iteratorIPS0_S2_EEDpOT_(ptr noundef nonnull align 8 dereferenceable(24) %0, ptr %1, ptr noundef nonnull align 4 dereferenceable(60) %2) #6 comdat align 2 !dbg !3680 {
  %4 = alloca %"class.__gnu_cxx::__normal_iterator.5", align 8
  %5 = alloca ptr, align 8
  %6 = alloca ptr, align 8
  %7 = alloca i64, align 8
  %8 = alloca ptr, align 8
  %9 = alloca ptr, align 8
  %10 = alloca i64, align 8
  %11 = alloca %"class.__gnu_cxx::__normal_iterator.5", align 8
  %12 = alloca ptr, align 8
  %13 = alloca ptr, align 8
  %14 = getelementptr inbounds %"class.__gnu_cxx::__normal_iterator.5", ptr %4, i32 0, i32 0
  store ptr %1, ptr %14, align 8
  store ptr %0, ptr %5, align 8
  call void @llvm.dbg.declare(metadata ptr %5, metadata !3685, metadata !DIExpression()), !dbg !3686
  call void @llvm.dbg.declare(metadata ptr %4, metadata !3687, metadata !DIExpression()), !dbg !3688
  store ptr %2, ptr %6, align 8
  call void @llvm.dbg.declare(metadata ptr %6, metadata !3689, metadata !DIExpression()), !dbg !3690
  %15 = load ptr, ptr %5, align 8
  call void @llvm.dbg.declare(metadata ptr %7, metadata !3691, metadata !DIExpression()), !dbg !3692
  %16 = call noundef i64 @_ZNKSt6vectorI6recordSaIS0_EE12_M_check_lenEmPKc(ptr noundef nonnull align 8 dereferenceable(24) %15, i64 noundef 1, ptr noundef @.str.31), !dbg !3693
  store i64 %16, ptr %7, align 8, !dbg !3692
  call void @llvm.dbg.declare(metadata ptr %8, metadata !3694, metadata !DIExpression()), !dbg !3695
  %17 = getelementptr inbounds %"struct.std::_Vector_base", ptr %15, i32 0, i32 0, !dbg !3696
  %18 = getelementptr inbounds %"struct.std::_Vector_base<record, std::allocator<record>>::_Vector_impl_data", ptr %17, i32 0, i32 0, !dbg !3697
  %19 = load ptr, ptr %18, align 8, !dbg !3697
  store ptr %19, ptr %8, align 8, !dbg !3695
  call void @llvm.dbg.declare(metadata ptr %9, metadata !3698, metadata !DIExpression()), !dbg !3699
  %20 = getelementptr inbounds %"struct.std::_Vector_base", ptr %15, i32 0, i32 0, !dbg !3700
  %21 = getelementptr inbounds %"struct.std::_Vector_base<record, std::allocator<record>>::_Vector_impl_data", ptr %20, i32 0, i32 1, !dbg !3701
  %22 = load ptr, ptr %21, align 8, !dbg !3701
  store ptr %22, ptr %9, align 8, !dbg !3699
  call void @llvm.dbg.declare(metadata ptr %10, metadata !3702, metadata !DIExpression()), !dbg !3703
  %23 = call ptr @_ZNSt6vectorI6recordSaIS0_EE5beginEv(ptr noundef nonnull align 8 dereferenceable(24) %15) #17, !dbg !3704
  %24 = getelementptr inbounds %"class.__gnu_cxx::__normal_iterator.5", ptr %11, i32 0, i32 0, !dbg !3704
  store ptr %23, ptr %24, align 8, !dbg !3704
  %25 = call noundef i64 @_ZN9__gnu_cxxmiIP6recordSt6vectorIS1_SaIS1_EEEENS_17__normal_iteratorIT_T0_E15difference_typeERKS9_SC_(ptr noundef nonnull align 8 dereferenceable(8) %4, ptr noundef nonnull align 8 dereferenceable(8) %11) #17, !dbg !3705
  store i64 %25, ptr %10, align 8, !dbg !3703
  call void @llvm.dbg.declare(metadata ptr %12, metadata !3706, metadata !DIExpression()), !dbg !3707
  %26 = load i64, ptr %7, align 8, !dbg !3708
  %27 = call noundef ptr @_ZNSt12_Vector_baseI6recordSaIS0_EE11_M_allocateEm(ptr noundef nonnull align 8 dereferenceable(24) %15, i64 noundef %26), !dbg !3709
  store ptr %27, ptr %12, align 8, !dbg !3707
  call void @llvm.dbg.declare(metadata ptr %13, metadata !3710, metadata !DIExpression()), !dbg !3711
  %28 = load ptr, ptr %12, align 8, !dbg !3712
  store ptr %28, ptr %13, align 8, !dbg !3711
  %29 = getelementptr inbounds %"struct.std::_Vector_base", ptr %15, i32 0, i32 0, !dbg !3713
  %30 = load ptr, ptr %12, align 8, !dbg !3715
  %31 = load i64, ptr %10, align 8, !dbg !3716
  %32 = getelementptr inbounds %struct.record, ptr %30, i64 %31, !dbg !3717
  %33 = load ptr, ptr %6, align 8, !dbg !3718
  call void @_ZNSt16allocator_traitsISaI6recordEE9constructIS0_JRKS0_EEEvRS1_PT_DpOT0_(ptr noundef nonnull align 1 dereferenceable(1) %29, ptr noundef %32, ptr noundef nonnull align 4 dereferenceable(60) %33) #17, !dbg !3719
  store ptr null, ptr %13, align 8, !dbg !3720
  %34 = load ptr, ptr %8, align 8, !dbg !3721
  %35 = call noundef nonnull align 8 dereferenceable(8) ptr @_ZNK9__gnu_cxx17__normal_iteratorIP6recordSt6vectorIS1_SaIS1_EEE4baseEv(ptr noundef nonnull align 8 dereferenceable(8) %4) #17, !dbg !3724
  %36 = load ptr, ptr %35, align 8, !dbg !3724
  %37 = load ptr, ptr %12, align 8, !dbg !3725
  %38 = call noundef nonnull align 1 dereferenceable(1) ptr @_ZNSt12_Vector_baseI6recordSaIS0_EE19_M_get_Tp_allocatorEv(ptr noundef nonnull align 8 dereferenceable(24) %15) #17, !dbg !3726
  %39 = call noundef ptr @_ZNSt6vectorI6recordSaIS0_EE11_S_relocateEPS0_S3_S3_RS1_(ptr noundef %34, ptr noundef %36, ptr noundef %37, ptr noundef nonnull align 1 dereferenceable(1) %38) #17, !dbg !3727
  store ptr %39, ptr %13, align 8, !dbg !3728
  %40 = load ptr, ptr %13, align 8, !dbg !3729
  %41 = getelementptr inbounds %struct.record, ptr %40, i32 1, !dbg !3729
  store ptr %41, ptr %13, align 8, !dbg !3729
  %42 = call noundef nonnull align 8 dereferenceable(8) ptr @_ZNK9__gnu_cxx17__normal_iteratorIP6recordSt6vectorIS1_SaIS1_EEE4baseEv(ptr noundef nonnull align 8 dereferenceable(8) %4) #17, !dbg !3730
  %43 = load ptr, ptr %42, align 8, !dbg !3730
  %44 = load ptr, ptr %9, align 8, !dbg !3731
  %45 = load ptr, ptr %13, align 8, !dbg !3732
  %46 = call noundef nonnull align 1 dereferenceable(1) ptr @_ZNSt12_Vector_baseI6recordSaIS0_EE19_M_get_Tp_allocatorEv(ptr noundef nonnull align 8 dereferenceable(24) %15) #17, !dbg !3733
  %47 = call noundef ptr @_ZNSt6vectorI6recordSaIS0_EE11_S_relocateEPS0_S3_S3_RS1_(ptr noundef %43, ptr noundef %44, ptr noundef %45, ptr noundef nonnull align 1 dereferenceable(1) %46) #17, !dbg !3734
  store ptr %47, ptr %13, align 8, !dbg !3735
  %48 = load ptr, ptr %8, align 8, !dbg !3736
  %49 = getelementptr inbounds %"struct.std::_Vector_base", ptr %15, i32 0, i32 0, !dbg !3737
  %50 = getelementptr inbounds %"struct.std::_Vector_base<record, std::allocator<record>>::_Vector_impl_data", ptr %49, i32 0, i32 2, !dbg !3738
  %51 = load ptr, ptr %50, align 8, !dbg !3738
  %52 = load ptr, ptr %8, align 8, !dbg !3739
  %53 = ptrtoint ptr %51 to i64, !dbg !3740
  %54 = ptrtoint ptr %52 to i64, !dbg !3740
  %55 = sub i64 %53, %54, !dbg !3740
  %56 = sdiv exact i64 %55, 60, !dbg !3740
  call void @_ZNSt12_Vector_baseI6recordSaIS0_EE13_M_deallocateEPS0_m(ptr noundef nonnull align 8 dereferenceable(24) %15, ptr noundef %48, i64 noundef %56), !dbg !3741
  %57 = load ptr, ptr %12, align 8, !dbg !3742
  %58 = getelementptr inbounds %"struct.std::_Vector_base", ptr %15, i32 0, i32 0, !dbg !3743
  %59 = getelementptr inbounds %"struct.std::_Vector_base<record, std::allocator<record>>::_Vector_impl_data", ptr %58, i32 0, i32 0, !dbg !3744
  store ptr %57, ptr %59, align 8, !dbg !3745
  %60 = load ptr, ptr %13, align 8, !dbg !3746
  %61 = getelementptr inbounds %"struct.std::_Vector_base", ptr %15, i32 0, i32 0, !dbg !3747
  %62 = getelementptr inbounds %"struct.std::_Vector_base<record, std::allocator<record>>::_Vector_impl_data", ptr %61, i32 0, i32 1, !dbg !3748
  store ptr %60, ptr %62, align 8, !dbg !3749
  %63 = load ptr, ptr %12, align 8, !dbg !3750
  %64 = load i64, ptr %7, align 8, !dbg !3751
  %65 = getelementptr inbounds %struct.record, ptr %63, i64 %64, !dbg !3752
  %66 = getelementptr inbounds %"struct.std::_Vector_base", ptr %15, i32 0, i32 0, !dbg !3753
  %67 = getelementptr inbounds %"struct.std::_Vector_base<record, std::allocator<record>>::_Vector_impl_data", ptr %66, i32 0, i32 2, !dbg !3754
  store ptr %65, ptr %67, align 8, !dbg !3755
  ret void, !dbg !3756
}

; Function Attrs: mustprogress noinline nounwind optnone uwtable
define linkonce_odr dso_local ptr @_ZNSt6vectorI6recordSaIS0_EE3endEv(ptr noundef nonnull align 8 dereferenceable(24) %0) #5 comdat align 2 !dbg !3757 {
  %2 = alloca %"class.__gnu_cxx::__normal_iterator.5", align 8
  %3 = alloca ptr, align 8
  store ptr %0, ptr %3, align 8
  call void @llvm.dbg.declare(metadata ptr %3, metadata !3758, metadata !DIExpression()), !dbg !3759
  %4 = load ptr, ptr %3, align 8
  %5 = getelementptr inbounds %"struct.std::_Vector_base", ptr %4, i32 0, i32 0, !dbg !3760
  %6 = getelementptr inbounds %"struct.std::_Vector_base<record, std::allocator<record>>::_Vector_impl_data", ptr %5, i32 0, i32 1, !dbg !3761
  call void @_ZN9__gnu_cxx17__normal_iteratorIP6recordSt6vectorIS1_SaIS1_EEEC2ERKS2_(ptr noundef nonnull align 8 dereferenceable(8) %2, ptr noundef nonnull align 8 dereferenceable(8) %6) #17, !dbg !3762
  %7 = getelementptr inbounds %"class.__gnu_cxx::__normal_iterator.5", ptr %2, i32 0, i32 0, !dbg !3763
  %8 = load ptr, ptr %7, align 8, !dbg !3763
  ret ptr %8, !dbg !3763
}

; Function Attrs: alwaysinline mustprogress nounwind uwtable
define linkonce_odr dso_local void @_ZNSt15__new_allocatorI6recordE9constructIS0_JRKS0_EEEvPT_DpOT0_(ptr noundef nonnull align 1 dereferenceable(1) %0, ptr noundef %1, ptr noundef nonnull align 4 dereferenceable(60) %2) #11 comdat align 2 !dbg !3764 {
  %4 = alloca ptr, align 8
  %5 = alloca ptr, align 8
  %6 = alloca ptr, align 8
  store ptr %0, ptr %4, align 8
  call void @llvm.dbg.declare(metadata ptr %4, metadata !3768, metadata !DIExpression()), !dbg !3769
  store ptr %1, ptr %5, align 8
  call void @llvm.dbg.declare(metadata ptr %5, metadata !3770, metadata !DIExpression()), !dbg !3771
  store ptr %2, ptr %6, align 8
  call void @llvm.dbg.declare(metadata ptr %6, metadata !3772, metadata !DIExpression()), !dbg !3773
  %7 = load ptr, ptr %4, align 8
  %8 = load ptr, ptr %5, align 8, !dbg !3774
  %9 = load ptr, ptr %6, align 8, !dbg !3775
  call void @llvm.memcpy.p0.p0.i64(ptr align 4 %8, ptr align 4 %9, i64 60, i1 false), !dbg !3776
  ret void, !dbg !3777
}

; Function Attrs: mustprogress noinline optnone uwtable
define linkonce_odr dso_local noundef i64 @_ZNKSt6vectorI6recordSaIS0_EE12_M_check_lenEmPKc(ptr noundef nonnull align 8 dereferenceable(24) %0, i64 noundef %1, ptr noundef %2) #6 comdat align 2 !dbg !3778 {
  %4 = alloca ptr, align 8
  %5 = alloca i64, align 8
  %6 = alloca ptr, align 8
  %7 = alloca i64, align 8
  %8 = alloca i64, align 8
  store ptr %0, ptr %4, align 8
  call void @llvm.dbg.declare(metadata ptr %4, metadata !3779, metadata !DIExpression()), !dbg !3781
  store i64 %1, ptr %5, align 8
  call void @llvm.dbg.declare(metadata ptr %5, metadata !3782, metadata !DIExpression()), !dbg !3783
  store ptr %2, ptr %6, align 8
  call void @llvm.dbg.declare(metadata ptr %6, metadata !3784, metadata !DIExpression()), !dbg !3785
  %9 = load ptr, ptr %4, align 8
  %10 = call noundef i64 @_ZNKSt6vectorI6recordSaIS0_EE8max_sizeEv(ptr noundef nonnull align 8 dereferenceable(24) %9) #17, !dbg !3786
  %11 = call noundef i64 @_ZNKSt6vectorI6recordSaIS0_EE4sizeEv(ptr noundef nonnull align 8 dereferenceable(24) %9) #17, !dbg !3788
  %12 = sub i64 %10, %11, !dbg !3789
  %13 = load i64, ptr %5, align 8, !dbg !3790
  %14 = icmp ult i64 %12, %13, !dbg !3791
  br i1 %14, label %15, label %17, !dbg !3792

15:                                               ; preds = %3
  %16 = load ptr, ptr %6, align 8, !dbg !3793
  call void @_ZSt20__throw_length_errorPKc(ptr noundef %16) #23, !dbg !3794
  unreachable, !dbg !3794

17:                                               ; preds = %3
  call void @llvm.dbg.declare(metadata ptr %7, metadata !3795, metadata !DIExpression()), !dbg !3796
  %18 = call noundef i64 @_ZNKSt6vectorI6recordSaIS0_EE4sizeEv(ptr noundef nonnull align 8 dereferenceable(24) %9) #17, !dbg !3797
  %19 = call noundef i64 @_ZNKSt6vectorI6recordSaIS0_EE4sizeEv(ptr noundef nonnull align 8 dereferenceable(24) %9) #17, !dbg !3798
  store i64 %19, ptr %8, align 8, !dbg !3798
  %20 = call noundef nonnull align 8 dereferenceable(8) ptr @_ZSt3maxImERKT_S2_S2_(ptr noundef nonnull align 8 dereferenceable(8) %8, ptr noundef nonnull align 8 dereferenceable(8) %5), !dbg !3799
  %21 = load i64, ptr %20, align 8, !dbg !3799
  %22 = add i64 %18, %21, !dbg !3800
  store i64 %22, ptr %7, align 8, !dbg !3796
  %23 = load i64, ptr %7, align 8, !dbg !3801
  %24 = call noundef i64 @_ZNKSt6vectorI6recordSaIS0_EE4sizeEv(ptr noundef nonnull align 8 dereferenceable(24) %9) #17, !dbg !3802
  %25 = icmp ult i64 %23, %24, !dbg !3803
  br i1 %25, label %30, label %26, !dbg !3804

26:                                               ; preds = %17
  %27 = load i64, ptr %7, align 8, !dbg !3805
  %28 = call noundef i64 @_ZNKSt6vectorI6recordSaIS0_EE8max_sizeEv(ptr noundef nonnull align 8 dereferenceable(24) %9) #17, !dbg !3806
  %29 = icmp ugt i64 %27, %28, !dbg !3807
  br i1 %29, label %30, label %32, !dbg !3808

30:                                               ; preds = %26, %17
  %31 = call noundef i64 @_ZNKSt6vectorI6recordSaIS0_EE8max_sizeEv(ptr noundef nonnull align 8 dereferenceable(24) %9) #17, !dbg !3809
  br label %34, !dbg !3808

32:                                               ; preds = %26
  %33 = load i64, ptr %7, align 8, !dbg !3810
  br label %34, !dbg !3808

34:                                               ; preds = %32, %30
  %35 = phi i64 [ %31, %30 ], [ %33, %32 ], !dbg !3808
  ret i64 %35, !dbg !3811
}

; Function Attrs: mustprogress noinline nounwind optnone uwtable
define linkonce_odr dso_local noundef i64 @_ZN9__gnu_cxxmiIP6recordSt6vectorIS1_SaIS1_EEEENS_17__normal_iteratorIT_T0_E15difference_typeERKS9_SC_(ptr noundef nonnull align 8 dereferenceable(8) %0, ptr noundef nonnull align 8 dereferenceable(8) %1) #5 comdat !dbg !3812 {
  %3 = alloca ptr, align 8
  %4 = alloca ptr, align 8
  store ptr %0, ptr %3, align 8
  call void @llvm.dbg.declare(metadata ptr %3, metadata !3816, metadata !DIExpression()), !dbg !3817
  store ptr %1, ptr %4, align 8
  call void @llvm.dbg.declare(metadata ptr %4, metadata !3818, metadata !DIExpression()), !dbg !3819
  %5 = load ptr, ptr %3, align 8, !dbg !3820
  %6 = call noundef nonnull align 8 dereferenceable(8) ptr @_ZNK9__gnu_cxx17__normal_iteratorIP6recordSt6vectorIS1_SaIS1_EEE4baseEv(ptr noundef nonnull align 8 dereferenceable(8) %5) #17, !dbg !3821
  %7 = load ptr, ptr %6, align 8, !dbg !3821
  %8 = load ptr, ptr %4, align 8, !dbg !3822
  %9 = call noundef nonnull align 8 dereferenceable(8) ptr @_ZNK9__gnu_cxx17__normal_iteratorIP6recordSt6vectorIS1_SaIS1_EEE4baseEv(ptr noundef nonnull align 8 dereferenceable(8) %8) #17, !dbg !3823
  %10 = load ptr, ptr %9, align 8, !dbg !3823
  %11 = ptrtoint ptr %7 to i64, !dbg !3824
  %12 = ptrtoint ptr %10 to i64, !dbg !3824
  %13 = sub i64 %11, %12, !dbg !3824
  %14 = sdiv exact i64 %13, 60, !dbg !3824
  ret i64 %14, !dbg !3825
}

; Function Attrs: mustprogress noinline nounwind optnone uwtable
define linkonce_odr dso_local ptr @_ZNSt6vectorI6recordSaIS0_EE5beginEv(ptr noundef nonnull align 8 dereferenceable(24) %0) #5 comdat align 2 !dbg !3826 {
  %2 = alloca %"class.__gnu_cxx::__normal_iterator.5", align 8
  %3 = alloca ptr, align 8
  store ptr %0, ptr %3, align 8
  call void @llvm.dbg.declare(metadata ptr %3, metadata !3827, metadata !DIExpression()), !dbg !3828
  %4 = load ptr, ptr %3, align 8
  %5 = getelementptr inbounds %"struct.std::_Vector_base", ptr %4, i32 0, i32 0, !dbg !3829
  %6 = getelementptr inbounds %"struct.std::_Vector_base<record, std::allocator<record>>::_Vector_impl_data", ptr %5, i32 0, i32 0, !dbg !3830
  call void @_ZN9__gnu_cxx17__normal_iteratorIP6recordSt6vectorIS1_SaIS1_EEEC2ERKS2_(ptr noundef nonnull align 8 dereferenceable(8) %2, ptr noundef nonnull align 8 dereferenceable(8) %6) #17, !dbg !3831
  %7 = getelementptr inbounds %"class.__gnu_cxx::__normal_iterator.5", ptr %2, i32 0, i32 0, !dbg !3832
  %8 = load ptr, ptr %7, align 8, !dbg !3832
  ret ptr %8, !dbg !3832
}

; Function Attrs: mustprogress noinline optnone uwtable
define linkonce_odr dso_local noundef ptr @_ZNSt12_Vector_baseI6recordSaIS0_EE11_M_allocateEm(ptr noundef nonnull align 8 dereferenceable(24) %0, i64 noundef %1) #6 comdat align 2 !dbg !3833 {
  %3 = alloca ptr, align 8
  %4 = alloca i64, align 8
  store ptr %0, ptr %3, align 8
  call void @llvm.dbg.declare(metadata ptr %3, metadata !3834, metadata !DIExpression()), !dbg !3835
  store i64 %1, ptr %4, align 8
  call void @llvm.dbg.declare(metadata ptr %4, metadata !3836, metadata !DIExpression()), !dbg !3837
  %5 = load ptr, ptr %3, align 8
  %6 = load i64, ptr %4, align 8, !dbg !3838
  %7 = icmp ne i64 %6, 0, !dbg !3839
  br i1 %7, label %8, label %12, !dbg !3838

8:                                                ; preds = %2
  %9 = getelementptr inbounds %"struct.std::_Vector_base", ptr %5, i32 0, i32 0, !dbg !3840
  %10 = load i64, ptr %4, align 8, !dbg !3841
  %11 = call noundef ptr @_ZNSt16allocator_traitsISaI6recordEE8allocateERS1_m(ptr noundef nonnull align 1 dereferenceable(1) %9, i64 noundef %10), !dbg !3842
  br label %13, !dbg !3838

12:                                               ; preds = %2
  br label %13, !dbg !3838

13:                                               ; preds = %12, %8
  %14 = phi ptr [ %11, %8 ], [ null, %12 ], !dbg !3838
  ret ptr %14, !dbg !3843
}

; Function Attrs: mustprogress noinline nounwind optnone uwtable
define linkonce_odr dso_local noundef ptr @_ZNSt6vectorI6recordSaIS0_EE11_S_relocateEPS0_S3_S3_RS1_(ptr noundef %0, ptr noundef %1, ptr noundef %2, ptr noundef nonnull align 1 dereferenceable(1) %3) #5 comdat align 2 !dbg !1248 {
  %5 = alloca ptr, align 8
  %6 = alloca ptr, align 8
  %7 = alloca ptr, align 8
  %8 = alloca ptr, align 8
  %9 = alloca %"struct.std::integral_constant", align 1
  store ptr %0, ptr %5, align 8
  call void @llvm.dbg.declare(metadata ptr %5, metadata !3844, metadata !DIExpression()), !dbg !3845
  store ptr %1, ptr %6, align 8
  call void @llvm.dbg.declare(metadata ptr %6, metadata !3846, metadata !DIExpression()), !dbg !3847
  store ptr %2, ptr %7, align 8
  call void @llvm.dbg.declare(metadata ptr %7, metadata !3848, metadata !DIExpression()), !dbg !3849
  store ptr %3, ptr %8, align 8
  call void @llvm.dbg.declare(metadata ptr %8, metadata !3850, metadata !DIExpression()), !dbg !3851
  %10 = load ptr, ptr %5, align 8, !dbg !3852
  %11 = load ptr, ptr %6, align 8, !dbg !3853
  %12 = load ptr, ptr %7, align 8, !dbg !3854
  %13 = load ptr, ptr %8, align 8, !dbg !3855
  %14 = call noundef ptr @_ZNSt6vectorI6recordSaIS0_EE14_S_do_relocateEPS0_S3_S3_RS1_St17integral_constantIbLb1EE(ptr noundef %10, ptr noundef %11, ptr noundef %12, ptr noundef nonnull align 1 dereferenceable(1) %13) #17, !dbg !3856
  ret ptr %14, !dbg !3857
}

; Function Attrs: mustprogress noinline nounwind optnone uwtable
define linkonce_odr dso_local noundef nonnull align 8 dereferenceable(8) ptr @_ZNK9__gnu_cxx17__normal_iteratorIP6recordSt6vectorIS1_SaIS1_EEE4baseEv(ptr noundef nonnull align 8 dereferenceable(8) %0) #5 comdat align 2 !dbg !3858 {
  %2 = alloca ptr, align 8
  store ptr %0, ptr %2, align 8
  call void @llvm.dbg.declare(metadata ptr %2, metadata !3859, metadata !DIExpression()), !dbg !3861
  %3 = load ptr, ptr %2, align 8
  %4 = getelementptr inbounds %"class.__gnu_cxx::__normal_iterator.5", ptr %3, i32 0, i32 0, !dbg !3862
  ret ptr %4, !dbg !3863
}

; Function Attrs: mustprogress noinline nounwind optnone uwtable
define linkonce_odr dso_local noundef i64 @_ZNKSt6vectorI6recordSaIS0_EE8max_sizeEv(ptr noundef nonnull align 8 dereferenceable(24) %0) #5 comdat align 2 !dbg !3864 {
  %2 = alloca ptr, align 8
  store ptr %0, ptr %2, align 8
  call void @llvm.dbg.declare(metadata ptr %2, metadata !3865, metadata !DIExpression()), !dbg !3866
  %3 = load ptr, ptr %2, align 8
  %4 = call noundef nonnull align 1 dereferenceable(1) ptr @_ZNKSt12_Vector_baseI6recordSaIS0_EE19_M_get_Tp_allocatorEv(ptr noundef nonnull align 8 dereferenceable(24) %3) #17, !dbg !3867
  %5 = call noundef i64 @_ZNSt6vectorI6recordSaIS0_EE11_S_max_sizeERKS1_(ptr noundef nonnull align 1 dereferenceable(1) %4) #17, !dbg !3868
  ret i64 %5, !dbg !3869
}

; Function Attrs: mustprogress noinline nounwind optnone uwtable
define linkonce_odr dso_local noundef i64 @_ZNKSt6vectorI6recordSaIS0_EE4sizeEv(ptr noundef nonnull align 8 dereferenceable(24) %0) #5 comdat align 2 !dbg !3870 {
  %2 = alloca ptr, align 8
  store ptr %0, ptr %2, align 8
  call void @llvm.dbg.declare(metadata ptr %2, metadata !3871, metadata !DIExpression()), !dbg !3872
  %3 = load ptr, ptr %2, align 8
  %4 = getelementptr inbounds %"struct.std::_Vector_base", ptr %3, i32 0, i32 0, !dbg !3873
  %5 = getelementptr inbounds %"struct.std::_Vector_base<record, std::allocator<record>>::_Vector_impl_data", ptr %4, i32 0, i32 1, !dbg !3874
  %6 = load ptr, ptr %5, align 8, !dbg !3874
  %7 = getelementptr inbounds %"struct.std::_Vector_base", ptr %3, i32 0, i32 0, !dbg !3875
  %8 = getelementptr inbounds %"struct.std::_Vector_base<record, std::allocator<record>>::_Vector_impl_data", ptr %7, i32 0, i32 0, !dbg !3876
  %9 = load ptr, ptr %8, align 8, !dbg !3876
  %10 = ptrtoint ptr %6 to i64, !dbg !3877
  %11 = ptrtoint ptr %9 to i64, !dbg !3877
  %12 = sub i64 %10, %11, !dbg !3877
  %13 = sdiv exact i64 %12, 60, !dbg !3877
  ret i64 %13, !dbg !3878
}

; Function Attrs: mustprogress noinline nounwind optnone uwtable
define linkonce_odr dso_local noundef i64 @_ZNSt6vectorI6recordSaIS0_EE11_S_max_sizeERKS1_(ptr noundef nonnull align 1 dereferenceable(1) %0) #5 comdat align 2 !dbg !3879 {
  %2 = alloca ptr, align 8
  %3 = alloca i64, align 8
  %4 = alloca i64, align 8
  store ptr %0, ptr %2, align 8
  call void @llvm.dbg.declare(metadata ptr %2, metadata !3880, metadata !DIExpression()), !dbg !3881
  call void @llvm.dbg.declare(metadata ptr %3, metadata !3882, metadata !DIExpression()), !dbg !3883
  store i64 153722867280912930, ptr %3, align 8, !dbg !3883
  call void @llvm.dbg.declare(metadata ptr %4, metadata !3884, metadata !DIExpression()), !dbg !3885
  %5 = load ptr, ptr %2, align 8, !dbg !3886
  %6 = call noundef i64 @_ZNSt16allocator_traitsISaI6recordEE8max_sizeERKS1_(ptr noundef nonnull align 1 dereferenceable(1) %5) #17, !dbg !3887
  store i64 %6, ptr %4, align 8, !dbg !3885
  %7 = call noundef nonnull align 8 dereferenceable(8) ptr @_ZSt3minImERKT_S2_S2_(ptr noundef nonnull align 8 dereferenceable(8) %3, ptr noundef nonnull align 8 dereferenceable(8) %4), !dbg !3888
  %8 = load i64, ptr %7, align 8, !dbg !3888
  ret i64 %8, !dbg !3889
}

; Function Attrs: mustprogress noinline nounwind optnone uwtable
define linkonce_odr dso_local noundef nonnull align 1 dereferenceable(1) ptr @_ZNKSt12_Vector_baseI6recordSaIS0_EE19_M_get_Tp_allocatorEv(ptr noundef nonnull align 8 dereferenceable(24) %0) #5 comdat align 2 !dbg !3890 {
  %2 = alloca ptr, align 8
  store ptr %0, ptr %2, align 8
  call void @llvm.dbg.declare(metadata ptr %2, metadata !3891, metadata !DIExpression()), !dbg !3893
  %3 = load ptr, ptr %2, align 8
  %4 = getelementptr inbounds %"struct.std::_Vector_base", ptr %3, i32 0, i32 0, !dbg !3894
  ret ptr %4, !dbg !3895
}

; Function Attrs: alwaysinline mustprogress nounwind uwtable
define linkonce_odr dso_local noundef i64 @_ZNSt16allocator_traitsISaI6recordEE8max_sizeERKS1_(ptr noundef nonnull align 1 dereferenceable(1) %0) #11 comdat align 2 !dbg !3896 {
  %2 = alloca ptr, align 8
  store ptr %0, ptr %2, align 8
  call void @llvm.dbg.declare(metadata ptr %2, metadata !3897, metadata !DIExpression()), !dbg !3898
  %3 = load ptr, ptr %2, align 8, !dbg !3899
  %4 = call noundef i64 @_ZNKSt15__new_allocatorI6recordE8max_sizeEv(ptr noundef nonnull align 1 dereferenceable(1) %3) #17, !dbg !3900
  ret i64 %4, !dbg !3901
}

; Function Attrs: alwaysinline mustprogress nounwind uwtable
define linkonce_odr dso_local noundef i64 @_ZNKSt15__new_allocatorI6recordE8max_sizeEv(ptr noundef nonnull align 1 dereferenceable(1) %0) #11 comdat align 2 !dbg !3902 {
  %2 = alloca ptr, align 8
  store ptr %0, ptr %2, align 8
  call void @llvm.dbg.declare(metadata ptr %2, metadata !3903, metadata !DIExpression()), !dbg !3905
  %3 = load ptr, ptr %2, align 8
  %4 = call noundef i64 @_ZNKSt15__new_allocatorI6recordE11_M_max_sizeEv(ptr noundef nonnull align 1 dereferenceable(1) %3) #17, !dbg !3906
  ret i64 %4, !dbg !3907
}

; Function Attrs: alwaysinline mustprogress nounwind uwtable
define linkonce_odr dso_local noundef i64 @_ZNKSt15__new_allocatorI6recordE11_M_max_sizeEv(ptr noundef nonnull align 1 dereferenceable(1) %0) #11 comdat align 2 !dbg !3908 {
  %2 = alloca ptr, align 8
  store ptr %0, ptr %2, align 8
  call void @llvm.dbg.declare(metadata ptr %2, metadata !3909, metadata !DIExpression()), !dbg !3910
  %3 = load ptr, ptr %2, align 8
  ret i64 153722867280912930, !dbg !3911
}

; Function Attrs: mustprogress noinline nounwind optnone uwtable
define linkonce_odr dso_local void @_ZN9__gnu_cxx17__normal_iteratorIP6recordSt6vectorIS1_SaIS1_EEEC2ERKS2_(ptr noundef nonnull align 8 dereferenceable(8) %0, ptr noundef nonnull align 8 dereferenceable(8) %1) unnamed_addr #5 comdat align 2 !dbg !3912 {
  %3 = alloca ptr, align 8
  %4 = alloca ptr, align 8
  store ptr %0, ptr %3, align 8
  call void @llvm.dbg.declare(metadata ptr %3, metadata !3913, metadata !DIExpression()), !dbg !3915
  store ptr %1, ptr %4, align 8
  call void @llvm.dbg.declare(metadata ptr %4, metadata !3916, metadata !DIExpression()), !dbg !3917
  %5 = load ptr, ptr %3, align 8
  %6 = getelementptr inbounds %"class.__gnu_cxx::__normal_iterator.5", ptr %5, i32 0, i32 0, !dbg !3918
  %7 = load ptr, ptr %4, align 8, !dbg !3919
  %8 = load ptr, ptr %7, align 8, !dbg !3919
  store ptr %8, ptr %6, align 8, !dbg !3918
  ret void, !dbg !3920
}

; Function Attrs: alwaysinline mustprogress uwtable
define linkonce_odr dso_local noundef ptr @_ZNSt16allocator_traitsISaI6recordEE8allocateERS1_m(ptr noundef nonnull align 1 dereferenceable(1) %0, i64 noundef %1) #12 comdat align 2 !dbg !3921 {
  %3 = alloca ptr, align 8
  %4 = alloca i64, align 8
  store ptr %0, ptr %3, align 8
  call void @llvm.dbg.declare(metadata ptr %3, metadata !3922, metadata !DIExpression()), !dbg !3923
  store i64 %1, ptr %4, align 8
  call void @llvm.dbg.declare(metadata ptr %4, metadata !3924, metadata !DIExpression()), !dbg !3925
  %5 = load ptr, ptr %3, align 8, !dbg !3926
  %6 = load i64, ptr %4, align 8, !dbg !3927
  %7 = call noundef ptr @_ZNSt15__new_allocatorI6recordE8allocateEmPKv(ptr noundef nonnull align 1 dereferenceable(1) %5, i64 noundef %6, ptr noundef null), !dbg !3928
  ret ptr %7, !dbg !3929
}

; Function Attrs: mustprogress noinline optnone uwtable
define linkonce_odr dso_local noundef ptr @_ZNSt15__new_allocatorI6recordE8allocateEmPKv(ptr noundef nonnull align 1 dereferenceable(1) %0, i64 noundef %1, ptr noundef %2) #6 comdat align 2 !dbg !3930 {
  %4 = alloca ptr, align 8
  %5 = alloca i64, align 8
  %6 = alloca ptr, align 8
  store ptr %0, ptr %4, align 8
  call void @llvm.dbg.declare(metadata ptr %4, metadata !3931, metadata !DIExpression()), !dbg !3932
  store i64 %1, ptr %5, align 8
